opt subtitle "HI-TECH Software Omniscient Code Generator (Lite mode) build 7503"

opt pagewidth 120

	opt lm

	processor	16F887
clrc	macro
	bcf	3,0
	endm
clrz	macro
	bcf	3,2
	endm
setc	macro
	bsf	3,0
	endm
setz	macro
	bsf	3,2
	endm
skipc	macro
	btfss	3,0
	endm
skipz	macro
	btfss	3,2
	endm
skipnc	macro
	btfsc	3,0
	endm
skipnz	macro
	btfsc	3,2
	endm
indf	equ	0
indf0	equ	0
pc	equ	2
pcl	equ	2
status	equ	3
fsr	equ	4
fsr0	equ	4
c	equ	1
z	equ	0
pclath	equ	10
# 7 "E:\MANFREE\(PIC)\gsm_receiver\gsm_receiver.c"
	psect config,class=CONFIG,delta=2 ;#
# 7 "E:\MANFREE\(PIC)\gsm_receiver\gsm_receiver.c"
	dw 0x2CE4 ;#
	FNCALL	_main,_display_cmd
	FNCALL	_main,_sms_text_mode
	FNCALL	_main,_display_str
	FNCALL	_main,_string_clear
	FNCALL	_display_str,_pulse
	FNCALL	_display_cmd,_pulse
	FNCALL	_sms_text_mode,_uart_tx
	FNCALL	_sms_text_mode,_uart_tx_char
	FNROOT	_main
	FNCALL	intlevel1,_uart_rx
	global	intlevel1
	FNROOT	intlevel1
	global	_count
	global	_store_value
	global	_data_count
	global	_data_received
	global	_temp
	global	_rx_value
	global	_PORTA
psect	text346,local,class=CODE,delta=2
global __ptext346
__ptext346:
_PORTA	set	5
	global	_PORTC
_PORTC	set	7
	global	_PORTD
_PORTD	set	8
	global	_PORTE
_PORTE	set	9
	global	_RCREG
_RCREG	set	26
	global	_RCSTA
_RCSTA	set	24
	global	_TXREG
_TXREG	set	25
	global	_GIE
_GIE	set	95
	global	_PEIE
_PEIE	set	94
	global	_RA0
_RA0	set	40
	global	_RCIF
_RCIF	set	101
	global	_RE0
_RE0	set	72
	global	_RE1
_RE1	set	73
	global	_TXIF
_TXIF	set	100
	global	_SPBRG
_SPBRG	set	153
	global	_TRISA
_TRISA	set	133
	global	_TRISD
_TRISD	set	136
	global	_TRISE
_TRISE	set	137
	global	_TXSTA
_TXSTA	set	152
	global	_RCIE
_RCIE	set	1125
	global	_TRISC6
_TRISC6	set	1086
	global	_TRISC7
_TRISC7	set	1087
	global	_ANSEL
_ANSEL	set	392
	global	_ANSELH
_ANSELH	set	393
psect	strings,class=STRING,delta=2
global __pstrings
__pstrings:
;	global	stringdir,stringtab,__stringbase
stringtab:
;	String table - string pointers are 1 byte each
	btfsc	(btemp+1),7
	ljmp	stringcode
	bcf	status,7
	btfsc	(btemp+1),0
	bsf	status,7
	movf	indf,w
	incf fsr
skipnz
incf btemp+1
	return
stringcode:stringdir:
movlw high(stringdir)
movwf pclath
movf fsr,w
incf fsr
	addwf pc
__stringbase:
	retlw	0
psect	strings
	
STR_3:	
	retlw	65	;'A'
	retlw	84	;'T'
	retlw	43	;'+'
	retlw	67	;'C'
	retlw	78	;'N'
	retlw	77	;'M'
	retlw	73	;'I'
	retlw	61	;'='
	retlw	50	;'2'
	retlw	44	;','
	retlw	50	;'2'
	retlw	44	;','
	retlw	48	;'0'
	retlw	44	;','
	retlw	48	;'0'
	retlw	44	;','
	retlw	48	;'0'
	retlw	0
psect	strings
	
STR_5:	
	retlw	82	;'R'
	retlw	69	;'E'
	retlw	67	;'C'
	retlw	73	;'I'
	retlw	86	;'V'
	retlw	69	;'E'
	retlw	68	;'D'
	retlw	32	;' '
	retlw	77	;'M'
	retlw	83	;'S'
	retlw	71	;'G'
	retlw	0
psect	strings
	
STR_2:	
	retlw	65	;'A'
	retlw	84	;'T'
	retlw	43	;'+'
	retlw	67	;'C'
	retlw	77	;'M'
	retlw	71	;'G'
	retlw	70	;'F'
	retlw	61	;'='
	retlw	49	;'1'
	retlw	0
psect	strings
	
STR_4:	
	retlw	71	;'G'
	retlw	83	;'S'
	retlw	77	;'M'
	retlw	32	;' '
	retlw	67	;'C'
	retlw	72	;'H'
	retlw	69	;'E'
	retlw	67	;'C'
	retlw	75	;'K'
	retlw	0
psect	strings
	
STR_1:	
	retlw	65	;'A'
	retlw	84	;'T'
	retlw	0
psect	strings
	file	"gsm_receiver.as"
	line	#
psect cinit,class=CODE,delta=2
global start_initialization
start_initialization:

psect	bssCOMMON,class=COMMON,space=1
global __pbssCOMMON
__pbssCOMMON:
_data_count:
       ds      2

_data_received:
       ds      2

_temp:
       ds      1

psect	bssBANK0,class=BANK0,space=1
global __pbssBANK0
__pbssBANK0:
_count:
       ds      2

_store_value:
       ds      2

_rx_value:
       ds      30

psect clrtext,class=CODE,delta=2
global clear_ram
;	Called with FSR containing the base address, and
;	W with the last address+1
clear_ram:
	clrwdt			;clear the watchdog before getting into this loop
clrloop:
	clrf	indf		;clear RAM location pointed to by FSR
	incf	fsr,f		;increment pointer
	xorwf	fsr,w		;XOR with final address
	btfsc	status,2	;have we reached the end yet?
	retlw	0		;all done for this memory range, return
	xorwf	fsr,w		;XOR again to restore value
	goto	clrloop		;do the next byte

; Clear objects allocated to COMMON
psect cinit,class=CODE,delta=2
	clrf	((__pbssCOMMON)+0)&07Fh
	clrf	((__pbssCOMMON)+1)&07Fh
	clrf	((__pbssCOMMON)+2)&07Fh
	clrf	((__pbssCOMMON)+3)&07Fh
	clrf	((__pbssCOMMON)+4)&07Fh
; Clear objects allocated to BANK0
psect cinit,class=CODE,delta=2
	bcf	status, 7	;select IRP bank0
	movlw	low(__pbssBANK0)
	movwf	fsr
	movlw	low((__pbssBANK0)+022h)
	fcall	clear_ram
psect cinit,class=CODE,delta=2
global end_of_initialization

;End of C runtime variable initialization code

end_of_initialization:
clrf status
ljmp _main	;jump to C main() function
psect	cstackCOMMON,class=COMMON,space=1
global __pcstackCOMMON
__pcstackCOMMON:
	global	?_uart_tx
?_uart_tx:	; 0 bytes @ 0x0
	global	?_uart_tx_char
?_uart_tx_char:	; 0 bytes @ 0x0
	global	?_sms_text_mode
?_sms_text_mode:	; 0 bytes @ 0x0
	global	?_uart_rx
?_uart_rx:	; 0 bytes @ 0x0
	global	??_uart_rx
??_uart_rx:	; 0 bytes @ 0x0
	global	?_string_clear
?_string_clear:	; 0 bytes @ 0x0
	global	?_pulse
?_pulse:	; 0 bytes @ 0x0
	global	?_main
?_main:	; 0 bytes @ 0x0
	ds	5
psect	cstackBANK0,class=BANK0,space=1
global __pcstackBANK0
__pcstackBANK0:
	global	??_uart_tx
??_uart_tx:	; 0 bytes @ 0x0
	global	??_uart_tx_char
??_uart_tx_char:	; 0 bytes @ 0x0
	global	??_string_clear
??_string_clear:	; 0 bytes @ 0x0
	global	??_pulse
??_pulse:	; 0 bytes @ 0x0
	global	string_clear@str_clr
string_clear@str_clr:	; 2 bytes @ 0x0
	ds	2
	global	?_display_cmd
?_display_cmd:	; 0 bytes @ 0x2
	global	?_display_str
?_display_str:	; 0 bytes @ 0x2
	global	display_cmd@cmd
display_cmd@cmd:	; 2 bytes @ 0x2
	global	display_str@data
display_str@data:	; 2 bytes @ 0x2
	ds	1
	global	uart_tx@send_data
uart_tx@send_data:	; 1 bytes @ 0x3
	global	uart_tx_char@send_data
uart_tx_char@send_data:	; 1 bytes @ 0x3
	ds	1
	global	??_sms_text_mode
??_sms_text_mode:	; 0 bytes @ 0x4
	global	??_display_cmd
??_display_cmd:	; 0 bytes @ 0x4
	global	??_display_str
??_display_str:	; 0 bytes @ 0x4
	ds	2
	global	??_main
??_main:	; 0 bytes @ 0x6
	ds	3
;;Data sizes: Strings 53, constant 0, data 0, bss 39, persistent 0 stack 0
;;Auto spaces:   Size  Autos    Used
;; COMMON          14      5      10
;; BANK0           80      9      43
;; BANK1           80      0       0
;; BANK3           96      0       0
;; BANK2           96      0       0

;;
;; Pointer list with targets:

;; display_str@data	PTR const unsigned char  size(2) Largest target is 30
;;		 -> STR_5(CODE[12]), STR_4(CODE[10]), rx_value(BANK0[30]), 
;;
;; uart_tx@send_data	PTR const unsigned char  size(1) Largest target is 18
;;		 -> STR_3(CODE[18]), STR_2(CODE[10]), STR_1(CODE[3]), 
;;


;;
;; Critical Paths under _main in COMMON
;;
;;   None.
;;
;; Critical Paths under _uart_rx in COMMON
;;
;;   None.
;;
;; Critical Paths under _main in BANK0
;;
;;   _main->_sms_text_mode
;;   _display_str->_pulse
;;   _display_cmd->_pulse
;;   _sms_text_mode->_uart_tx
;;   _sms_text_mode->_uart_tx_char
;;
;; Critical Paths under _uart_rx in BANK0
;;
;;   None.
;;
;; Critical Paths under _main in BANK1
;;
;;   None.
;;
;; Critical Paths under _uart_rx in BANK1
;;
;;   None.
;;
;; Critical Paths under _main in BANK3
;;
;;   None.
;;
;; Critical Paths under _uart_rx in BANK3
;;
;;   None.
;;
;; Critical Paths under _main in BANK2
;;
;;   None.
;;
;; Critical Paths under _uart_rx in BANK2
;;
;;   None.

;;
;;Main: autosize = 0, tempsize = 3, incstack = 0, save=0
;;

;;
;;Call Graph Tables:
;;
;; ---------------------------------------------------------------------------------
;; (Depth) Function   	        Calls       Base Space   Used Autos Params    Refs
;; ---------------------------------------------------------------------------------
;; (0) _main                                                 3     3      0     291
;;                                              6 BANK0      3     3      0
;;                        _display_cmd
;;                      _sms_text_mode
;;                        _display_str
;;                       _string_clear
;; ---------------------------------------------------------------------------------
;; (1) _display_str                                          2     0      2      65
;;                                              2 BANK0      2     0      2
;;                              _pulse
;; ---------------------------------------------------------------------------------
;; (1) _display_cmd                                          2     0      2      31
;;                                              2 BANK0      2     0      2
;;                              _pulse
;; ---------------------------------------------------------------------------------
;; (1) _sms_text_mode                                        2     2      0      96
;;                                              4 BANK0      2     2      0
;;                            _uart_tx
;;                       _uart_tx_char
;; ---------------------------------------------------------------------------------
;; (2) _pulse                                                2     2      0       0
;;                                              0 BANK0      2     2      0
;; ---------------------------------------------------------------------------------
;; (2) _uart_tx_char                                         4     4      0      31
;;                                              0 BANK0      4     4      0
;; ---------------------------------------------------------------------------------
;; (3) _uart_tx                                              4     4      0      65
;;                                              0 BANK0      4     4      0
;; ---------------------------------------------------------------------------------
;; (1) _string_clear                                         2     2      0      99
;;                                              0 BANK0      2     2      0
;; ---------------------------------------------------------------------------------
;; Estimated maximum stack depth 3
;; ---------------------------------------------------------------------------------
;; (Depth) Function   	        Calls       Base Space   Used Autos Params    Refs
;; ---------------------------------------------------------------------------------
;; (4) _uart_rx                                              5     5      0       0
;;                                              0 COMMON     5     5      0
;; ---------------------------------------------------------------------------------
;; Estimated maximum stack depth 4
;; ---------------------------------------------------------------------------------

;; Call Graph Graphs:

;; _main (ROOT)
;;   _display_cmd
;;     _pulse
;;   _sms_text_mode
;;     _uart_tx
;;     _uart_tx_char
;;   _display_str
;;     _pulse
;;   _string_clear
;;
;; _uart_rx (ROOT)
;;

;; Address spaces:

;;Name               Size   Autos  Total    Cost      Usage
;;BITCOMMON            E      0       0       0        0.0%
;;EEDATA             100      0       0       0        0.0%
;;NULL                 0      0       0       0        0.0%
;;CODE                 0      0       0       0        0.0%
;;COMMON               E      5       A       1       71.4%
;;BITSFR0              0      0       0       1        0.0%
;;SFR0                 0      0       0       1        0.0%
;;BITSFR1              0      0       0       2        0.0%
;;SFR1                 0      0       0       2        0.0%
;;STACK                0      0       3       2        0.0%
;;ABS                  0      0      35       3        0.0%
;;BITBANK0            50      0       0       4        0.0%
;;BITSFR3              0      0       0       4        0.0%
;;SFR3                 0      0       0       4        0.0%
;;BANK0               50      9      2B       5       53.8%
;;BITSFR2              0      0       0       5        0.0%
;;SFR2                 0      0       0       5        0.0%
;;BITBANK1            50      0       0       6        0.0%
;;BANK1               50      0       0       7        0.0%
;;BITBANK3            60      0       0       8        0.0%
;;BANK3               60      0       0       9        0.0%
;;BITBANK2            60      0       0      10        0.0%
;;BANK2               60      0       0      11        0.0%
;;DATA                 0      0      38      12        0.0%

	global	_main
psect	maintext,global,class=CODE,delta=2
global __pmaintext
__pmaintext:

;; *************** function _main *****************
;; Defined at:
;;		line 122 in file "E:\MANFREE\(PIC)\gsm_receiver\gsm_receiver.c"
;; Parameters:    Size  Location     Type
;;		None
;; Auto vars:     Size  Location     Type
;;		None
;; Return value:  Size  Location     Type
;;		None               void
;; Registers used:
;;		wreg, fsr0l, fsr0h, status,2, status,0, btemp+1, pclath, cstack
;; Tracked objects:
;;		On entry : 17F/0
;;		On exit  : 0/0
;;		Unchanged: 0/0
;; Data sizes:     COMMON   BANK0   BANK1   BANK3   BANK2
;;      Params:         0       0       0       0       0
;;      Locals:         0       0       0       0       0
;;      Temps:          0       3       0       0       0
;;      Totals:         0       3       0       0       0
;;Total ram usage:        3 bytes
;; Hardware stack levels required when called:    4
;; This function calls:
;;		_display_cmd
;;		_sms_text_mode
;;		_display_str
;;		_string_clear
;; This function is called by:
;;		Startup code after reset
;; This function uses a non-reentrant model
;;
psect	maintext
	file	"E:\MANFREE\(PIC)\gsm_receiver\gsm_receiver.c"
	line	122
	global	__size_of_main
	__size_of_main	equ	__end_of_main-_main
	
_main:	
	opt	stack 4
; Regs used in _main: [wreg-fsr0h+status,2+status,0+btemp+1+pclath+cstack]
	line	123
	
l2633:	
;gsm_receiver.c: 123: TRISC6 = 0;
	bsf	status, 5	;RP0=1, select bank1
	bcf	status, 6	;RP1=0, select bank1
	bcf	(1086/8)^080h,(1086)&7
	line	124
;gsm_receiver.c: 124: TRISC7 = 1;
	bsf	(1087/8)^080h,(1087)&7
	line	125
	
l2635:	
;gsm_receiver.c: 125: PORTA = 0X00;
	bcf	status, 5	;RP0=0, select bank0
	bcf	status, 6	;RP1=0, select bank0
	clrf	(5)	;volatile
	line	126
;gsm_receiver.c: 126: TRISA = 0X00;
	bsf	status, 5	;RP0=1, select bank1
	bcf	status, 6	;RP1=0, select bank1
	clrf	(133)^080h	;volatile
	line	127
;gsm_receiver.c: 127: PORTC = 0x00;
	bcf	status, 5	;RP0=0, select bank0
	bcf	status, 6	;RP1=0, select bank0
	clrf	(7)	;volatile
	line	128
;gsm_receiver.c: 128: TRISD = 0x00;
	bsf	status, 5	;RP0=1, select bank1
	bcf	status, 6	;RP1=0, select bank1
	clrf	(136)^080h	;volatile
	line	129
;gsm_receiver.c: 129: PORTD = 0x00;
	bcf	status, 5	;RP0=0, select bank0
	bcf	status, 6	;RP1=0, select bank0
	clrf	(8)	;volatile
	line	130
;gsm_receiver.c: 130: TRISE = 0X00;
	bsf	status, 5	;RP0=1, select bank1
	bcf	status, 6	;RP1=0, select bank1
	clrf	(137)^080h	;volatile
	line	131
;gsm_receiver.c: 131: PORTE = 0X00;
	bcf	status, 5	;RP0=0, select bank0
	bcf	status, 6	;RP1=0, select bank0
	clrf	(9)	;volatile
	line	132
	
l2637:	
;gsm_receiver.c: 132: TXSTA = 0X26;
	movlw	(026h)
	bsf	status, 5	;RP0=1, select bank1
	bcf	status, 6	;RP1=0, select bank1
	movwf	(152)^080h	;volatile
	line	133
	
l2639:	
;gsm_receiver.c: 133: RCSTA = 0X90;
	movlw	(090h)
	bcf	status, 5	;RP0=0, select bank0
	bcf	status, 6	;RP1=0, select bank0
	movwf	(24)	;volatile
	line	134
	
l2641:	
;gsm_receiver.c: 134: SPBRG = 25;
	movlw	(019h)
	bsf	status, 5	;RP0=1, select bank1
	bcf	status, 6	;RP1=0, select bank1
	movwf	(153)^080h	;volatile
	line	135
	
l2643:	
;gsm_receiver.c: 135: ANSEL = 0x00;
	bsf	status, 5	;RP0=1, select bank3
	bsf	status, 6	;RP1=1, select bank3
	clrf	(392)^0180h	;volatile
	line	136
	
l2645:	
;gsm_receiver.c: 136: ANSELH = 0x00;
	clrf	(393)^0180h	;volatile
	line	137
	
l2647:	
;gsm_receiver.c: 137: display_cmd(0x38);
	movlw	low(038h)
	bcf	status, 5	;RP0=0, select bank0
	bcf	status, 6	;RP1=0, select bank0
	movwf	(?_display_cmd)
	movlw	high(038h)
	movwf	((?_display_cmd))+1
	fcall	_display_cmd
	line	138
	
l2649:	
;gsm_receiver.c: 138: display_cmd(0x0E);
	movlw	low(0Eh)
	bcf	status, 5	;RP0=0, select bank0
	bcf	status, 6	;RP1=0, select bank0
	movwf	(?_display_cmd)
	movlw	high(0Eh)
	movwf	((?_display_cmd))+1
	fcall	_display_cmd
	line	139
	
l2651:	
;gsm_receiver.c: 139: _delay((unsigned long)((1000)*(4000000/4000.0)));
	opt asmopt_off
movlw  6
	bcf	status, 5	;RP0=0, select bank0
	bcf	status, 6	;RP1=0, select bank0
movwf	((??_main+0)+0+2),f
movlw	14
movwf	((??_main+0)+0+1),f
	movlw	176
movwf	((??_main+0)+0),f
u2677:
	decfsz	((??_main+0)+0),f
	goto	u2677
	decfsz	((??_main+0)+0+1),f
	goto	u2677
	decfsz	((??_main+0)+0+2),f
	goto	u2677
opt asmopt_on

	line	140
	
l2653:	
;gsm_receiver.c: 140: sms_text_mode();
	fcall	_sms_text_mode
	line	142
	
l2655:	
;gsm_receiver.c: 142: GIE = PEIE = RCIE = 1;
	bsf	status, 5	;RP0=1, select bank1
	bcf	status, 6	;RP1=0, select bank1
	bsf	(1125/8)^080h,(1125)&7
	btfsc	(1125/8)^080h,(1125)&7
	goto	u2581
	goto	u2580
	
u2581:
	bsf	(94/8),(94)&7
	goto	u2594
u2580:
	bcf	(94/8),(94)&7
u2594:
	btfsc	(94/8),(94)&7
	goto	u2591
	goto	u2590
	
u2591:
	bsf	(95/8),(95)&7
	goto	u2604
u2590:
	bcf	(95/8),(95)&7
u2604:
	line	143
	
l2657:	
;gsm_receiver.c: 143: display_cmd(0x80);
	movlw	low(080h)
	bcf	status, 5	;RP0=0, select bank0
	bcf	status, 6	;RP1=0, select bank0
	movwf	(?_display_cmd)
	movlw	high(080h)
	movwf	((?_display_cmd))+1
	fcall	_display_cmd
	line	144
	
l2659:	
;gsm_receiver.c: 144: display_cmd(0x01);
	movlw	low(01h)
	bcf	status, 5	;RP0=0, select bank0
	bcf	status, 6	;RP1=0, select bank0
	movwf	(?_display_cmd)
	movlw	high(01h)
	movwf	((?_display_cmd))+1
	fcall	_display_cmd
	line	145
	
l2661:	
;gsm_receiver.c: 145: display_str("GSM CHECK");
	movlw	low((STR_4-__stringbase))
	bcf	status, 5	;RP0=0, select bank0
	bcf	status, 6	;RP1=0, select bank0
	movwf	(?_display_str)
	movlw	80h
	movwf	(?_display_str+1)
	fcall	_display_str
	goto	l2663
	line	147
;gsm_receiver.c: 147: while (1)
	
l1088:	
	line	149
	
l2663:	
;gsm_receiver.c: 148: {
;gsm_receiver.c: 149: if (data_received == 1)
	movlw	01h
	xorwf	(_data_received),w
	iorwf	(_data_received+1),w
	skipz
	goto	u2611
	goto	u2610
u2611:
	goto	l2695
u2610:
	line	151
	
l2665:	
;gsm_receiver.c: 150: {
;gsm_receiver.c: 151: display_cmd(0x01);
	movlw	low(01h)
	bcf	status, 5	;RP0=0, select bank0
	bcf	status, 6	;RP1=0, select bank0
	movwf	(?_display_cmd)
	movlw	high(01h)
	movwf	((?_display_cmd))+1
	fcall	_display_cmd
	line	152
;gsm_receiver.c: 152: display_cmd(0x80);
	movlw	low(080h)
	bcf	status, 5	;RP0=0, select bank0
	bcf	status, 6	;RP1=0, select bank0
	movwf	(?_display_cmd)
	movlw	high(080h)
	movwf	((?_display_cmd))+1
	fcall	_display_cmd
	line	153
	
l2667:	
;gsm_receiver.c: 153: display_str("RECIVED MSG");
	movlw	low((STR_5-__stringbase))
	bcf	status, 5	;RP0=0, select bank0
	bcf	status, 6	;RP1=0, select bank0
	movwf	(?_display_str)
	movlw	80h
	movwf	(?_display_str+1)
	fcall	_display_str
	line	155
	
l2669:	
;gsm_receiver.c: 155: if ((rx_value[0] == 'o') && (rx_value[1] == 'n'))
	bcf	status, 5	;RP0=0, select bank0
	bcf	status, 6	;RP1=0, select bank0
	movf	(_rx_value),w
	xorlw	06Fh
	skipz
	goto	u2621
	goto	u2620
u2621:
	goto	l2675
u2620:
	
l2671:	
	movf	0+(_rx_value)+01h,w
	xorlw	06Eh
	skipz
	goto	u2631
	goto	u2630
u2631:
	goto	l2675
u2630:
	line	157
	
l2673:	
;gsm_receiver.c: 156: {
;gsm_receiver.c: 157: RA0 = 1;
	bsf	(40/8),(40)&7
	goto	l2675
	line	158
	
l1090:	
	line	159
	
l2675:	
;gsm_receiver.c: 158: }
;gsm_receiver.c: 159: if ((rx_value[0] == 'o') && (rx_value[1] == 'f') && (rx_value[2] == 'f'))
	movf	(_rx_value),w
	xorlw	06Fh
	skipz
	goto	u2641
	goto	u2640
u2641:
	goto	l2683
u2640:
	
l2677:	
	movf	0+(_rx_value)+01h,w
	xorlw	066h
	skipz
	goto	u2651
	goto	u2650
u2651:
	goto	l2683
u2650:
	
l2679:	
	movf	0+(_rx_value)+02h,w
	xorlw	066h
	skipz
	goto	u2661
	goto	u2660
u2661:
	goto	l2683
u2660:
	line	161
	
l2681:	
;gsm_receiver.c: 160: {
;gsm_receiver.c: 161: RA0 = 0;
	bcf	(40/8),(40)&7
	goto	l2683
	line	162
	
l1091:	
	line	163
	
l2683:	
;gsm_receiver.c: 162: }
;gsm_receiver.c: 163: display_cmd(0xC0);
	movlw	low(0C0h)
	movwf	(?_display_cmd)
	movlw	high(0C0h)
	movwf	((?_display_cmd))+1
	fcall	_display_cmd
	line	164
	
l2685:	
;gsm_receiver.c: 164: display_str(rx_value);
	movlw	(_rx_value&0ffh)
	bcf	status, 5	;RP0=0, select bank0
	bcf	status, 6	;RP1=0, select bank0
	movwf	(?_display_str)
	movlw	(0x0/2)
	movwf	(?_display_str+1)
	fcall	_display_str
	line	165
	
l2687:	
;gsm_receiver.c: 165: data_count = 0;
	clrf	(_data_count)
	clrf	(_data_count+1)
	line	166
	
l2689:	
;gsm_receiver.c: 166: count = 0;
	bcf	status, 5	;RP0=0, select bank0
	bcf	status, 6	;RP1=0, select bank0
	clrf	(_count)
	clrf	(_count+1)
	line	167
	
l2691:	
;gsm_receiver.c: 167: string_clear();
	fcall	_string_clear
	line	168
	
l2693:	
;gsm_receiver.c: 168: data_received = 0;
	clrf	(_data_received)
	clrf	(_data_received+1)
	goto	l2695
	line	169
	
l1089:	
	line	170
	
l2695:	
;gsm_receiver.c: 169: }
;gsm_receiver.c: 170: _delay((unsigned long)((1000)*(4000000/4000.0)));
	opt asmopt_off
movlw  6
	bcf	status, 5	;RP0=0, select bank0
	bcf	status, 6	;RP1=0, select bank0
movwf	((??_main+0)+0+2),f
movlw	14
movwf	((??_main+0)+0+1),f
	movlw	176
movwf	((??_main+0)+0),f
u2687:
	decfsz	((??_main+0)+0),f
	goto	u2687
	decfsz	((??_main+0)+0+1),f
	goto	u2687
	decfsz	((??_main+0)+0+2),f
	goto	u2687
opt asmopt_on

	goto	l2663
	line	171
	
l1092:	
	line	147
	goto	l2663
	
l1093:	
	line	172
	
l1094:	
	global	start
	ljmp	start
	opt stack 0
GLOBAL	__end_of_main
	__end_of_main:
;; =============== function _main ends ============

	signat	_main,88
	global	_display_str
psect	text347,local,class=CODE,delta=2
global __ptext347
__ptext347:

;; *************** function _display_str *****************
;; Defined at:
;;		line 113 in file "E:\MANFREE\(PIC)\gsm_receiver\gsm_receiver.c"
;; Parameters:    Size  Location     Type
;;  data            2    2[BANK0 ] PTR const unsigned char 
;;		 -> STR_5(12), STR_4(10), rx_value(30), 
;; Auto vars:     Size  Location     Type
;;		None
;; Return value:  Size  Location     Type
;;		None               void
;; Registers used:
;;		wreg, fsr0l, fsr0h, status,2, status,0, btemp+1, pclath, cstack
;; Tracked objects:
;;		On entry : 0/0
;;		On exit  : 0/0
;;		Unchanged: 0/0
;; Data sizes:     COMMON   BANK0   BANK1   BANK3   BANK2
;;      Params:         0       2       0       0       0
;;      Locals:         0       0       0       0       0
;;      Temps:          0       0       0       0       0
;;      Totals:         0       2       0       0       0
;;Total ram usage:        2 bytes
;; Hardware stack levels used:    1
;; Hardware stack levels required when called:    2
;; This function calls:
;;		_pulse
;; This function is called by:
;;		_main
;; This function uses a non-reentrant model
;;
psect	text347
	file	"E:\MANFREE\(PIC)\gsm_receiver\gsm_receiver.c"
	line	113
	global	__size_of_display_str
	__size_of_display_str	equ	__end_of_display_str-_display_str
	
_display_str:	
	opt	stack 5
; Regs used in _display_str: [wreg-fsr0h+status,2+status,0+btemp+1+pclath+cstack]
	line	114
	
l2623:	
;gsm_receiver.c: 114: while (*data)
	goto	l2631
	
l1083:	
	line	116
;gsm_receiver.c: 115: {
;gsm_receiver.c: 116: RE0 = 1;
	bsf	(72/8),(72)&7
	line	117
	
l2625:	
;gsm_receiver.c: 117: PORTD = *data++;
	movf	(display_str@data+1),w
	movwf	btemp+1
	movf	(display_str@data),w
	movwf	fsr0
	fcall	stringtab
	movwf	(8)	;volatile
	
l2627:	
	movlw	low(01h)
	addwf	(display_str@data),f
	skipnc
	incf	(display_str@data+1),f
	movlw	high(01h)
	addwf	(display_str@data+1),f
	line	118
	
l2629:	
;gsm_receiver.c: 118: pulse();
	fcall	_pulse
	goto	l2631
	line	119
	
l1082:	
	line	114
	
l2631:	
	bcf	status, 5	;RP0=0, select bank0
	bcf	status, 6	;RP1=0, select bank0
	movf	(display_str@data+1),w
	movwf	btemp+1
	movf	(display_str@data),w
	movwf	fsr0
	fcall	stringtab
	iorlw	0
	skipz
	goto	u2571
	goto	u2570
u2571:
	goto	l1083
u2570:
	goto	l1085
	
l1084:	
	line	120
	
l1085:	
	return
	opt stack 0
GLOBAL	__end_of_display_str
	__end_of_display_str:
;; =============== function _display_str ends ============

	signat	_display_str,4216
	global	_display_cmd
psect	text348,local,class=CODE,delta=2
global __ptext348
__ptext348:

;; *************** function _display_cmd *****************
;; Defined at:
;;		line 99 in file "E:\MANFREE\(PIC)\gsm_receiver\gsm_receiver.c"
;; Parameters:    Size  Location     Type
;;  cmd             2    2[BANK0 ] int 
;; Auto vars:     Size  Location     Type
;;		None
;; Return value:  Size  Location     Type
;;		None               void
;; Registers used:
;;		wreg, status,2, status,0, pclath, cstack
;; Tracked objects:
;;		On entry : 0/0
;;		On exit  : 0/0
;;		Unchanged: 0/0
;; Data sizes:     COMMON   BANK0   BANK1   BANK3   BANK2
;;      Params:         0       2       0       0       0
;;      Locals:         0       0       0       0       0
;;      Temps:          0       0       0       0       0
;;      Totals:         0       2       0       0       0
;;Total ram usage:        2 bytes
;; Hardware stack levels used:    1
;; Hardware stack levels required when called:    2
;; This function calls:
;;		_pulse
;; This function is called by:
;;		_main
;; This function uses a non-reentrant model
;;
psect	text348
	file	"E:\MANFREE\(PIC)\gsm_receiver\gsm_receiver.c"
	line	99
	global	__size_of_display_cmd
	__size_of_display_cmd	equ	__end_of_display_cmd-_display_cmd
	
_display_cmd:	
	opt	stack 5
; Regs used in _display_cmd: [wreg+status,2+status,0+pclath+cstack]
	line	100
	
l2617:	
;gsm_receiver.c: 100: RE0 = 0;
	bcf	status, 5	;RP0=0, select bank0
	bcf	status, 6	;RP1=0, select bank0
	bcf	(72/8),(72)&7
	line	101
	
l2619:	
;gsm_receiver.c: 101: PORTD = cmd;
	movf	(display_cmd@cmd),w
	movwf	(8)	;volatile
	line	102
	
l2621:	
;gsm_receiver.c: 102: pulse();
	fcall	_pulse
	line	103
	
l1076:	
	return
	opt stack 0
GLOBAL	__end_of_display_cmd
	__end_of_display_cmd:
;; =============== function _display_cmd ends ============

	signat	_display_cmd,4216
	global	_sms_text_mode
psect	text349,local,class=CODE,delta=2
global __ptext349
__ptext349:

;; *************** function _sms_text_mode *****************
;; Defined at:
;;		line 17 in file "E:\MANFREE\(PIC)\gsm_receiver\gsm_receiver.c"
;; Parameters:    Size  Location     Type
;;		None
;; Auto vars:     Size  Location     Type
;;		None
;; Return value:  Size  Location     Type
;;		None               void
;; Registers used:
;;		wreg, fsr0l, fsr0h, status,2, status,0, pclath, cstack
;; Tracked objects:
;;		On entry : 0/0
;;		On exit  : 0/0
;;		Unchanged: 0/0
;; Data sizes:     COMMON   BANK0   BANK1   BANK3   BANK2
;;      Params:         0       0       0       0       0
;;      Locals:         0       0       0       0       0
;;      Temps:          0       2       0       0       0
;;      Totals:         0       2       0       0       0
;;Total ram usage:        2 bytes
;; Hardware stack levels used:    1
;; Hardware stack levels required when called:    3
;; This function calls:
;;		_uart_tx
;;		_uart_tx_char
;; This function is called by:
;;		_main
;; This function uses a non-reentrant model
;;
psect	text349
	file	"E:\MANFREE\(PIC)\gsm_receiver\gsm_receiver.c"
	line	17
	global	__size_of_sms_text_mode
	__size_of_sms_text_mode	equ	__end_of_sms_text_mode-_sms_text_mode
	
_sms_text_mode:	
	opt	stack 4
; Regs used in _sms_text_mode: [wreg-fsr0h+status,2+status,0+pclath+cstack]
	line	19
	
l2595:	
;gsm_receiver.c: 19: uart_tx("AT");
	movlw	((STR_1-__stringbase))&0ffh
	fcall	_uart_tx
	line	20
	
l2597:	
;gsm_receiver.c: 20: uart_tx_char(0X0D);
	movlw	(0Dh)
	fcall	_uart_tx_char
	line	21
	
l2599:	
;gsm_receiver.c: 21: uart_tx_char(0X0A);
	movlw	(0Ah)
	fcall	_uart_tx_char
	line	22
	
l2601:	
;gsm_receiver.c: 22: _delay((unsigned long)((100)*(4000000/4000.0)));
	opt asmopt_off
movlw	130
	bcf	status, 5	;RP0=0, select bank0
	bcf	status, 6	;RP1=0, select bank0
movwf	((??_sms_text_mode+0)+0+1),f
	movlw	221
movwf	((??_sms_text_mode+0)+0),f
u2697:
	decfsz	((??_sms_text_mode+0)+0),f
	goto	u2697
	decfsz	((??_sms_text_mode+0)+0+1),f
	goto	u2697
	nop2
opt asmopt_on

	line	24
	
l2603:	
;gsm_receiver.c: 24: uart_tx("AT+CMGF=1");
	movlw	((STR_2-__stringbase))&0ffh
	fcall	_uart_tx
	line	25
	
l2605:	
;gsm_receiver.c: 25: uart_tx_char(0X0D);
	movlw	(0Dh)
	fcall	_uart_tx_char
	line	26
	
l2607:	
;gsm_receiver.c: 26: uart_tx_char(0X0A);
	movlw	(0Ah)
	fcall	_uart_tx_char
	line	27
;gsm_receiver.c: 27: _delay((unsigned long)((100)*(4000000/4000.0)));
	opt asmopt_off
movlw	130
	bcf	status, 5	;RP0=0, select bank0
	bcf	status, 6	;RP1=0, select bank0
movwf	((??_sms_text_mode+0)+0+1),f
	movlw	221
movwf	((??_sms_text_mode+0)+0),f
u2707:
	decfsz	((??_sms_text_mode+0)+0),f
	goto	u2707
	decfsz	((??_sms_text_mode+0)+0+1),f
	goto	u2707
	nop2
opt asmopt_on

	line	29
	
l2609:	
;gsm_receiver.c: 29: uart_tx("AT+CNMI=2,2,0,0,0");
	movlw	((STR_3-__stringbase))&0ffh
	fcall	_uart_tx
	line	30
	
l2611:	
;gsm_receiver.c: 30: uart_tx_char(0X0D);
	movlw	(0Dh)
	fcall	_uart_tx_char
	line	31
	
l2613:	
;gsm_receiver.c: 31: uart_tx_char(0X0A);
	movlw	(0Ah)
	fcall	_uart_tx_char
	line	32
	
l2615:	
;gsm_receiver.c: 32: _delay((unsigned long)((100)*(4000000/4000.0)));
	opt asmopt_off
movlw	130
	bcf	status, 5	;RP0=0, select bank0
	bcf	status, 6	;RP1=0, select bank0
movwf	((??_sms_text_mode+0)+0+1),f
	movlw	221
movwf	((??_sms_text_mode+0)+0),f
u2717:
	decfsz	((??_sms_text_mode+0)+0),f
	goto	u2717
	decfsz	((??_sms_text_mode+0)+0+1),f
	goto	u2717
	nop2
opt asmopt_on

	line	33
	
l1043:	
	return
	opt stack 0
GLOBAL	__end_of_sms_text_mode
	__end_of_sms_text_mode:
;; =============== function _sms_text_mode ends ============

	signat	_sms_text_mode,88
	global	_pulse
psect	text350,local,class=CODE,delta=2
global __ptext350
__ptext350:

;; *************** function _pulse *****************
;; Defined at:
;;		line 91 in file "E:\MANFREE\(PIC)\gsm_receiver\gsm_receiver.c"
;; Parameters:    Size  Location     Type
;;		None
;; Auto vars:     Size  Location     Type
;;		None
;; Return value:  Size  Location     Type
;;		None               void
;; Registers used:
;;		wreg
;; Tracked objects:
;;		On entry : 0/0
;;		On exit  : 0/0
;;		Unchanged: 0/0
;; Data sizes:     COMMON   BANK0   BANK1   BANK3   BANK2
;;      Params:         0       0       0       0       0
;;      Locals:         0       0       0       0       0
;;      Temps:          0       2       0       0       0
;;      Totals:         0       2       0       0       0
;;Total ram usage:        2 bytes
;; Hardware stack levels used:    1
;; Hardware stack levels required when called:    1
;; This function calls:
;;		Nothing
;; This function is called by:
;;		_display_cmd
;;		_display_str
;;		_display_data
;; This function uses a non-reentrant model
;;
psect	text350
	file	"E:\MANFREE\(PIC)\gsm_receiver\gsm_receiver.c"
	line	91
	global	__size_of_pulse
	__size_of_pulse	equ	__end_of_pulse-_pulse
	
_pulse:	
	opt	stack 5
; Regs used in _pulse: [wreg]
	line	92
	
l2589:	
;gsm_receiver.c: 92: RE1 = 1;
	bcf	status, 5	;RP0=0, select bank0
	bcf	status, 6	;RP1=0, select bank0
	bsf	(73/8),(73)&7
	line	93
	
l2591:	
;gsm_receiver.c: 93: _delay((unsigned long)((10)*(4000000/4000.0)));
	opt asmopt_off
movlw	13
movwf	((??_pulse+0)+0+1),f
	movlw	251
movwf	((??_pulse+0)+0),f
u2727:
	decfsz	((??_pulse+0)+0),f
	goto	u2727
	decfsz	((??_pulse+0)+0+1),f
	goto	u2727
	nop2
opt asmopt_on

	line	94
	
l2593:	
;gsm_receiver.c: 94: RE1 = 0;
	bcf	status, 5	;RP0=0, select bank0
	bcf	status, 6	;RP1=0, select bank0
	bcf	(73/8),(73)&7
	line	95
;gsm_receiver.c: 95: _delay((unsigned long)((10)*(4000000/4000.0)));
	opt asmopt_off
movlw	13
movwf	((??_pulse+0)+0+1),f
	movlw	251
movwf	((??_pulse+0)+0),f
u2737:
	decfsz	((??_pulse+0)+0),f
	goto	u2737
	decfsz	((??_pulse+0)+0+1),f
	goto	u2737
	nop2
opt asmopt_on

	line	96
	
l1073:	
	return
	opt stack 0
GLOBAL	__end_of_pulse
	__end_of_pulse:
;; =============== function _pulse ends ============

	signat	_pulse,88
	global	_uart_tx_char
psect	text351,local,class=CODE,delta=2
global __ptext351
__ptext351:

;; *************** function _uart_tx_char *****************
;; Defined at:
;;		line 74 in file "E:\MANFREE\(PIC)\gsm_receiver\gsm_receiver.c"
;; Parameters:    Size  Location     Type
;;  send_data       1    wreg     unsigned char 
;; Auto vars:     Size  Location     Type
;;  send_data       1    3[BANK0 ] unsigned char 
;; Return value:  Size  Location     Type
;;		None               void
;; Registers used:
;;		wreg
;; Tracked objects:
;;		On entry : 0/0
;;		On exit  : 0/0
;;		Unchanged: 0/0
;; Data sizes:     COMMON   BANK0   BANK1   BANK3   BANK2
;;      Params:         0       0       0       0       0
;;      Locals:         0       1       0       0       0
;;      Temps:          0       3       0       0       0
;;      Totals:         0       4       0       0       0
;;Total ram usage:        4 bytes
;; Hardware stack levels used:    1
;; Hardware stack levels required when called:    1
;; This function calls:
;;		Nothing
;; This function is called by:
;;		_sms_text_mode
;; This function uses a non-reentrant model
;;
psect	text351
	file	"E:\MANFREE\(PIC)\gsm_receiver\gsm_receiver.c"
	line	74
	global	__size_of_uart_tx_char
	__size_of_uart_tx_char	equ	__end_of_uart_tx_char-_uart_tx_char
	
_uart_tx_char:	
	opt	stack 5
; Regs used in _uart_tx_char: [wreg]
;uart_tx_char@send_data stored from wreg
	line	76
	bcf	status, 5	;RP0=0, select bank0
	bcf	status, 6	;RP1=0, select bank0
	movwf	(uart_tx_char@send_data)
	
l2585:	
;gsm_receiver.c: 76: TXREG = send_data;
	movf	(uart_tx_char@send_data),w
	movwf	(25)	;volatile
	line	77
;gsm_receiver.c: 77: while (TXIF == 0);
	goto	l1062
	
l1063:	
	
l1062:	
	btfss	(100/8),(100)&7
	goto	u2561
	goto	u2560
u2561:
	goto	l1062
u2560:
	
l1064:	
	line	78
;gsm_receiver.c: 78: TXIF = 0;
	bcf	(100/8),(100)&7
	line	79
	
l2587:	
;gsm_receiver.c: 79: _delay((unsigned long)((1000)*(4000000/4000.0)));
	opt asmopt_off
movlw  6
movwf	((??_uart_tx_char+0)+0+2),f
movlw	14
movwf	((??_uart_tx_char+0)+0+1),f
	movlw	176
movwf	((??_uart_tx_char+0)+0),f
u2747:
	decfsz	((??_uart_tx_char+0)+0),f
	goto	u2747
	decfsz	((??_uart_tx_char+0)+0+1),f
	goto	u2747
	decfsz	((??_uart_tx_char+0)+0+2),f
	goto	u2747
opt asmopt_on

	line	80
	
l1065:	
	return
	opt stack 0
GLOBAL	__end_of_uart_tx_char
	__end_of_uart_tx_char:
;; =============== function _uart_tx_char ends ============

	signat	_uart_tx_char,4216
	global	_uart_tx
psect	text352,local,class=CODE,delta=2
global __ptext352
__ptext352:

;; *************** function _uart_tx *****************
;; Defined at:
;;		line 63 in file "E:\MANFREE\(PIC)\gsm_receiver\gsm_receiver.c"
;; Parameters:    Size  Location     Type
;;  send_data       1    wreg     PTR const unsigned char 
;;		 -> STR_3(18), STR_2(10), STR_1(3), 
;; Auto vars:     Size  Location     Type
;;  send_data       1    3[BANK0 ] PTR const unsigned char 
;;		 -> STR_3(18), STR_2(10), STR_1(3), 
;; Return value:  Size  Location     Type
;;		None               void
;; Registers used:
;;		wreg, fsr0l, fsr0h, status,2, status,0, pclath
;; Tracked objects:
;;		On entry : 0/0
;;		On exit  : 0/0
;;		Unchanged: 0/0
;; Data sizes:     COMMON   BANK0   BANK1   BANK3   BANK2
;;      Params:         0       0       0       0       0
;;      Locals:         0       1       0       0       0
;;      Temps:          0       3       0       0       0
;;      Totals:         0       4       0       0       0
;;Total ram usage:        4 bytes
;; Hardware stack levels used:    2
;; Hardware stack levels required when called:    1
;; This function calls:
;;		Nothing
;; This function is called by:
;;		_sms_text_mode
;; This function uses a non-reentrant model
;;
psect	text352
	file	"E:\MANFREE\(PIC)\gsm_receiver\gsm_receiver.c"
	line	63
	global	__size_of_uart_tx
	__size_of_uart_tx	equ	__end_of_uart_tx-_uart_tx
	
_uart_tx:	
	opt	stack 4
; Regs used in _uart_tx: [wreg-fsr0h+status,2+status,0+pclath]
;uart_tx@send_data stored from wreg
	bcf	status, 5	;RP0=0, select bank0
	bcf	status, 6	;RP1=0, select bank0
	movwf	(uart_tx@send_data)
	line	64
	
l2575:	
;gsm_receiver.c: 64: while (*send_data)
	goto	l2583
	
l1054:	
	line	66
	
l2577:	
;gsm_receiver.c: 65: {
;gsm_receiver.c: 66: TXREG = *send_data;
	movf	(uart_tx@send_data),w
	movwf	fsr0
	fcall	stringdir
	movwf	(25)	;volatile
	line	67
	
l2579:	
;gsm_receiver.c: 67: send_data++;
	movlw	(01h)
	movwf	(??_uart_tx+0)+0
	movf	(??_uart_tx+0)+0,w
	addwf	(uart_tx@send_data),f
	line	68
;gsm_receiver.c: 68: while (TXIF == 0);
	goto	l1055
	
l1056:	
	
l1055:	
	btfss	(100/8),(100)&7
	goto	u2541
	goto	u2540
u2541:
	goto	l1055
u2540:
	
l1057:	
	line	69
;gsm_receiver.c: 69: TXIF = 0;
	bcf	(100/8),(100)&7
	line	70
	
l2581:	
;gsm_receiver.c: 70: _delay((unsigned long)((1000)*(4000000/4000.0)));
	opt asmopt_off
movlw  6
movwf	((??_uart_tx+0)+0+2),f
movlw	14
movwf	((??_uart_tx+0)+0+1),f
	movlw	176
movwf	((??_uart_tx+0)+0),f
u2757:
	decfsz	((??_uart_tx+0)+0),f
	goto	u2757
	decfsz	((??_uart_tx+0)+0+1),f
	goto	u2757
	decfsz	((??_uart_tx+0)+0+2),f
	goto	u2757
opt asmopt_on

	goto	l2583
	line	71
	
l1053:	
	line	64
	
l2583:	
	bcf	status, 5	;RP0=0, select bank0
	bcf	status, 6	;RP1=0, select bank0
	movf	(uart_tx@send_data),w
	movwf	fsr0
	fcall	stringdir
	iorlw	0
	skipz
	goto	u2551
	goto	u2550
u2551:
	goto	l2577
u2550:
	goto	l1059
	
l1058:	
	line	72
	
l1059:	
	return
	opt stack 0
GLOBAL	__end_of_uart_tx
	__end_of_uart_tx:
;; =============== function _uart_tx ends ============

	signat	_uart_tx,4216
	global	_string_clear
psect	text353,local,class=CODE,delta=2
global __ptext353
__ptext353:

;; *************** function _string_clear *****************
;; Defined at:
;;		line 83 in file "E:\MANFREE\(PIC)\gsm_receiver\gsm_receiver.c"
;; Parameters:    Size  Location     Type
;;		None
;; Auto vars:     Size  Location     Type
;;  str_clr         2    0[BANK0 ] int 
;; Return value:  Size  Location     Type
;;		None               void
;; Registers used:
;;		wreg, fsr0l, fsr0h, status,2, status,0, btemp+1
;; Tracked objects:
;;		On entry : 0/0
;;		On exit  : 0/0
;;		Unchanged: 0/0
;; Data sizes:     COMMON   BANK0   BANK1   BANK3   BANK2
;;      Params:         0       0       0       0       0
;;      Locals:         0       2       0       0       0
;;      Temps:          0       0       0       0       0
;;      Totals:         0       2       0       0       0
;;Total ram usage:        2 bytes
;; Hardware stack levels used:    1
;; Hardware stack levels required when called:    1
;; This function calls:
;;		Nothing
;; This function is called by:
;;		_main
;; This function uses a non-reentrant model
;;
psect	text353
	file	"E:\MANFREE\(PIC)\gsm_receiver\gsm_receiver.c"
	line	83
	global	__size_of_string_clear
	__size_of_string_clear	equ	__end_of_string_clear-_string_clear
	
_string_clear:	
	opt	stack 6
; Regs used in _string_clear: [wreg-fsr0h+status,2+status,0+btemp+1]
	line	84
	
l2557:	
;gsm_receiver.c: 84: for (int str_clr = 0; str_clr < 30; str_clr++)
	bcf	status, 5	;RP0=0, select bank0
	bcf	status, 6	;RP1=0, select bank0
	clrf	(string_clear@str_clr)
	clrf	(string_clear@str_clr+1)
	
l2559:	
	movf	(string_clear@str_clr+1),w
	xorlw	80h
	movwf	btemp+1
	movlw	(high(01Eh))^80h
	subwf	btemp+1,w
	skipz
	goto	u2525
	movlw	low(01Eh)
	subwf	(string_clear@str_clr),w
u2525:

	skipc
	goto	u2521
	goto	u2520
u2521:
	goto	l2563
u2520:
	goto	l1070
	
l2561:	
	goto	l1070
	line	85
	
l1068:	
	line	86
	
l2563:	
;gsm_receiver.c: 85: {
;gsm_receiver.c: 86: rx_value[str_clr] = 0;
	bcf	status, 5	;RP0=0, select bank0
	bcf	status, 6	;RP1=0, select bank0
	movf	(string_clear@str_clr),w
	addlw	_rx_value&0ffh
	movwf	fsr0
	bcf	status, 7	;select IRP bank0
	clrf	indf
	line	84
	
l2565:	
	movlw	low(01h)
	addwf	(string_clear@str_clr),f
	skipnc
	incf	(string_clear@str_clr+1),f
	movlw	high(01h)
	addwf	(string_clear@str_clr+1),f
	
l2567:	
	movf	(string_clear@str_clr+1),w
	xorlw	80h
	movwf	btemp+1
	movlw	(high(01Eh))^80h
	subwf	btemp+1,w
	skipz
	goto	u2535
	movlw	low(01Eh)
	subwf	(string_clear@str_clr),w
u2535:

	skipc
	goto	u2531
	goto	u2530
u2531:
	goto	l2563
u2530:
	goto	l1070
	
l1069:	
	line	88
	
l1070:	
	return
	opt stack 0
GLOBAL	__end_of_string_clear
	__end_of_string_clear:
;; =============== function _string_clear ends ============

	signat	_string_clear,88
	global	_uart_rx
psect	text354,local,class=CODE,delta=2
global __ptext354
__ptext354:

;; *************** function _uart_rx *****************
;; Defined at:
;;		line 36 in file "E:\MANFREE\(PIC)\gsm_receiver\gsm_receiver.c"
;; Parameters:    Size  Location     Type
;;		None
;; Auto vars:     Size  Location     Type
;;		None
;; Return value:  Size  Location     Type
;;		None               void
;; Registers used:
;;		wreg, fsr0l, fsr0h, status,2, status,0
;; Tracked objects:
;;		On entry : 0/0
;;		On exit  : 0/0
;;		Unchanged: 0/0
;; Data sizes:     COMMON   BANK0   BANK1   BANK3   BANK2
;;      Params:         0       0       0       0       0
;;      Locals:         0       0       0       0       0
;;      Temps:          5       0       0       0       0
;;      Totals:         5       0       0       0       0
;;Total ram usage:        5 bytes
;; Hardware stack levels used:    1
;; This function calls:
;;		Nothing
;; This function is called by:
;;		Interrupt level 1
;; This function uses a non-reentrant model
;;
psect	text354
	file	"E:\MANFREE\(PIC)\gsm_receiver\gsm_receiver.c"
	line	36
	global	__size_of_uart_rx
	__size_of_uart_rx	equ	__end_of_uart_rx-_uart_rx
	
_uart_rx:	
	opt	stack 4
; Regs used in _uart_rx: [wreg-fsr0h+status,2+status,0]
psect	intentry,class=CODE,delta=2
global __pintentry
__pintentry:
global interrupt_function
interrupt_function:
	global saved_w
	saved_w	set	btemp+0
	movwf	saved_w
	swapf	status,w
	movwf	(??_uart_rx+1)
	movf	fsr0,w
	movwf	(??_uart_rx+2)
	movf	pclath,w
	movwf	(??_uart_rx+3)
	bcf	status, 5	;RP0=0, select bank0
	bcf	status, 6	;RP1=0, select bank0
	movf	btemp+1,w
	movwf	(??_uart_rx+4)
	ljmp	_uart_rx
psect	text354
	line	37
	
i1l2395:	
;gsm_receiver.c: 37: if (RCIF == 1)
	btfss	(101/8),(101)&7
	goto	u233_21
	goto	u233_20
u233_21:
	goto	i1l2413
u233_20:
	line	39
	
i1l2397:	
;gsm_receiver.c: 38: {
;gsm_receiver.c: 39: temp = RCREG;
	movf	(26),w	;volatile
	movwf	(??_uart_rx+0)+0
	movf	(??_uart_rx+0)+0,w
	movwf	(_temp)
	line	41
;gsm_receiver.c: 40: {
;gsm_receiver.c: 41: if (store_value == 2)
	movlw	02h
	xorwf	(_store_value),w
	iorwf	(_store_value+1),w
	skipz
	goto	u234_21
	goto	u234_20
u234_21:
	goto	i1l2405
u234_20:
	line	43
	
i1l2399:	
;gsm_receiver.c: 42: {
;gsm_receiver.c: 43: rx_value[data_count] = temp;
	movf	(_temp),w
	movwf	(??_uart_rx+0)+0
	movf	(_data_count),w
	addlw	_rx_value&0ffh
	movwf	fsr0
	movf	(??_uart_rx+0)+0,w
	bcf	status, 7	;select IRP bank0
	movwf	indf
	line	44
	
i1l2401:	
;gsm_receiver.c: 44: data_received = 1;
	movlw	low(01h)
	movwf	(_data_received)
	movlw	high(01h)
	movwf	((_data_received))+1
	line	45
	
i1l2403:	
;gsm_receiver.c: 45: data_count++;
	movlw	low(01h)
	addwf	(_data_count),f
	skipnc
	incf	(_data_count+1),f
	movlw	high(01h)
	addwf	(_data_count+1),f
	goto	i1l2405
	line	46
	
i1l1047:	
	line	48
	
i1l2405:	
;gsm_receiver.c: 46: }
;gsm_receiver.c: 48: if (temp == 0x0A)
	movf	(_temp),w
	xorlw	0Ah
	skipz
	goto	u235_21
	goto	u235_20
u235_21:
	goto	i1l1048
u235_20:
	line	50
	
i1l2407:	
;gsm_receiver.c: 49: {
;gsm_receiver.c: 50: store_value++;
	movlw	low(01h)
	addwf	(_store_value),f
	skipnc
	incf	(_store_value+1),f
	movlw	high(01h)
	addwf	(_store_value+1),f
	line	51
	
i1l1048:	
	line	52
;gsm_receiver.c: 51: }
;gsm_receiver.c: 52: if (temp == 0x0D)
	movf	(_temp),w
	xorlw	0Dh
	skipz
	goto	u236_21
	goto	u236_20
u236_21:
	goto	i1l2413
u236_20:
	line	54
	
i1l2409:	
;gsm_receiver.c: 53: {
;gsm_receiver.c: 54: rx_value[data_count - 1] = '\0';
	movf	(_data_count),w
	addlw	0FFh
	addlw	_rx_value&0ffh
	movwf	fsr0
	bcf	status, 7	;select IRP bank0
	clrf	indf
	line	55
	
i1l2411:	
;gsm_receiver.c: 55: store_value = 0;
	clrf	(_store_value)
	clrf	(_store_value+1)
	goto	i1l2413
	line	56
	
i1l1049:	
	goto	i1l2413
	line	58
	
i1l1046:	
	line	59
	
i1l2413:	
;gsm_receiver.c: 56: }
;gsm_receiver.c: 57: }
;gsm_receiver.c: 58: }
;gsm_receiver.c: 59: RCIF = 0;
	bcf	(101/8),(101)&7
	line	60
	
i1l2415:	
;gsm_receiver.c: 60: temp = 0;
	clrf	(_temp)
	line	61
	
i1l1050:	
	movf	(??_uart_rx+4),w
	movwf	btemp+1
	movf	(??_uart_rx+3),w
	movwf	pclath
	movf	(??_uart_rx+2),w
	movwf	fsr0
	swapf	(??_uart_rx+1)^0FFFFFF80h,w
	movwf	status
	swapf	saved_w,f
	swapf	saved_w,w
	retfie
	opt stack 0
GLOBAL	__end_of_uart_rx
	__end_of_uart_rx:
;; =============== function _uart_rx ends ============

	signat	_uart_rx,88
psect	text355,local,class=CODE,delta=2
global __ptext355
__ptext355:
	global	btemp
	btemp set 07Eh

	DABS	1,126,2	;btemp
	global	wtemp0
	wtemp0 set btemp
	end
