

HI-TECH Software PIC LITE Macro Assembler V9.81 build 7503 
                                                                                               Fri Mar 03 16:05:57 2023

HI-TECH Software Omniscient Code Generator (Lite mode) build 7503
     1  0000                     opt subtitle "HI-TECH Software Omniscient Code Generator (Lite mode) build 7503"
     2                           
     3                           opt pagewidth 120
     4                           
     5                           	opt lm
     6                           
     7                           	processor	16F887
     8                           clrc	macro
     9                           	bcf	3,0
    10  0000                     	endm
    11                           clrz	macro
    12                           	bcf	3,2
    13  0000                     	endm
    14                           setc	macro
    15                           	bsf	3,0
    16  0000                     	endm
    17                           setz	macro
    18                           	bsf	3,2
    19  0000                     	endm
    20                           skipc	macro
    21                           	btfss	3,0
    22  0000                     	endm
    23                           skipz	macro
    24                           	btfss	3,2
    25  0000                     	endm
    26                           skipnc	macro
    27                           	btfsc	3,0
    28  0000                     	endm
    29                           skipnz	macro
    30                           	btfsc	3,2
    31  0000                     	endm
    32  0000                     indf	equ	0
    33  0000                     indf0	equ	0
    34  0002                     pc	equ	2
    35  0002                     pcl	equ	2
    36  0003                     status	equ	3
    37  0004                     fsr	equ	4
    38  0004                     fsr0	equ	4
    39  0001                     c	equ	1
    40  0000                     z	equ	0
    41  000A                     pclath	equ	10
    42                           # 7 "E:\MANFREE\(PIC)\gsm_receiver\gsm_receiver.c"
    43                           	psect config,class=CONFIG,delta=2 ;#
    44                           # 7 "E:\MANFREE\(PIC)\gsm_receiver\gsm_receiver.c"
    45  2007  2CE4               	dw 0x2CE4 ;#
    46                           	FNCALL	_main,_display_cmd
    47                           	FNCALL	_main,_sms_text_mode
    48                           	FNCALL	_main,_display_str
    49                           	FNCALL	_main,_string_clear
    50                           	FNCALL	_display_str,_pulse
    51                           	FNCALL	_display_cmd,_pulse
    52                           	FNCALL	_sms_text_mode,_uart_tx
    53                           	FNCALL	_sms_text_mode,_uart_tx_char
    54                           	FNROOT	_main
    55                           	FNCALL	intlevel1,_uart_rx
    56                           	global	intlevel1
    57                           	FNROOT	intlevel1
    58                           	global	_count
    59                           	global	_store_value
    60                           	global	_data_count
    61                           	global	_data_received
    62                           	global	_temp
    63                           	global	_rx_value
    64                           	global	_PORTA
    65                           psect	text346,local,class=CODE,delta=2
    66                           global __ptext346
    67  0000                     __ptext346:
    68  0005                     _PORTA	set	5
    69                           	global	_PORTC
    70  0007                     _PORTC	set	7
    71                           	global	_PORTD
    72  0008                     _PORTD	set	8
    73                           	global	_PORTE
    74  0009                     _PORTE	set	9
    75                           	global	_RCREG
    76  001A                     _RCREG	set	26
    77                           	global	_RCSTA
    78  0018                     _RCSTA	set	24
    79                           	global	_TXREG
    80  0019                     _TXREG	set	25
    81                           	global	_GIE
    82  005F                     _GIE	set	95
    83                           	global	_PEIE
    84  005E                     _PEIE	set	94
    85                           	global	_RA0
    86  0028                     _RA0	set	40
    87                           	global	_RCIF
    88  0065                     _RCIF	set	101
    89                           	global	_RE0
    90  0048                     _RE0	set	72
    91                           	global	_RE1
    92  0049                     _RE1	set	73
    93                           	global	_TXIF
    94  0064                     _TXIF	set	100
    95                           	global	_SPBRG
    96  0099                     _SPBRG	set	153
    97                           	global	_TRISA
    98  0085                     _TRISA	set	133
    99                           	global	_TRISD
   100  0088                     _TRISD	set	136
   101                           	global	_TRISE
   102  0089                     _TRISE	set	137
   103                           	global	_TXSTA
   104  0098                     _TXSTA	set	152
   105                           	global	_RCIE
   106  0465                     _RCIE	set	1125
   107                           	global	_TRISC6
   108  043E                     _TRISC6	set	1086
   109                           	global	_TRISC7
   110  043F                     _TRISC7	set	1087
   111                           	global	_ANSEL
   112  0188                     _ANSEL	set	392
   113                           	global	_ANSELH
   114  0189                     _ANSELH	set	393
   115                           psect	strings,class=STRING,delta=2
   116                           global __pstrings
   117  0015                     __pstrings:
   118                           ;	global	stringdir,stringtab,__stringbase
   119  0015                     stringtab:
   120                           ;	String table - string pointers are 1 byte each
   121  0015  1BFF               	btfsc	(btemp+1),7
   122  0016  281F               	ljmp	stringcode
   123  0017  1383               	bcf	status,7
   124  0018  187F               	btfsc	(btemp+1),0
   125  0019  1783               	bsf	status,7
   126  001A  0800               	movf	indf,w
   127  001B  0A84               	incf fsr
   128  001C  1903               skipnz
   129  001D  0AFF               incf btemp+1
   130  001E  0008               	return
   131  001F                     stringcode:stringdir:
      + 001F                     stringdir:	
   132  001F  3000               movlw high(stringdir)
   133  0020  008A               movwf pclath
   134  0021  0804               movf fsr,w
   135  0022  0A84               incf fsr
   136  0023  0782               	addwf pc
   137  0024                     __stringbase:
   138  0024  3400               	retlw	0
   139                           psect	strings
   140                           	
   141  0025                     STR_3:	
   142  0025  3441               	retlw	65	;'A'
   143  0026  3454               	retlw	84	;'T'
   144  0027  342B               	retlw	43	;'+'
   145  0028  3443               	retlw	67	;'C'
   146  0029  344E               	retlw	78	;'N'
   147  002A  344D               	retlw	77	;'M'
   148  002B  3449               	retlw	73	;'I'
   149  002C  343D               	retlw	61	;'='
   150  002D  3432               	retlw	50	;'2'
   151  002E  342C               	retlw	44	;','
   152  002F  3432               	retlw	50	;'2'
   153  0030  342C               	retlw	44	;','
   154  0031  3430               	retlw	48	;'0'
   155  0032  342C               	retlw	44	;','
   156  0033  3430               	retlw	48	;'0'
   157  0034  342C               	retlw	44	;','
   158  0035  3430               	retlw	48	;'0'
   159  0036  3400               	retlw	0
   160                           psect	strings
   161                           	
   162  0037                     STR_5:	
   163  0037  3452               	retlw	82	;'R'
   164  0038  3445               	retlw	69	;'E'
   165  0039  3443               	retlw	67	;'C'
   166  003A  3449               	retlw	73	;'I'
   167  003B  3456               	retlw	86	;'V'
   168  003C  3445               	retlw	69	;'E'
   169  003D  3444               	retlw	68	;'D'
   170  003E  3420               	retlw	32	;' '
   171  003F  344D               	retlw	77	;'M'
   172  0040  3453               	retlw	83	;'S'
   173  0041  3447               	retlw	71	;'G'
   174  0042  3400               	retlw	0
   175                           psect	strings
   176                           	
   177  0043                     STR_2:	
   178  0043  3441               	retlw	65	;'A'
   179  0044  3454               	retlw	84	;'T'
   180  0045  342B               	retlw	43	;'+'
   181  0046  3443               	retlw	67	;'C'
   182  0047  344D               	retlw	77	;'M'
   183  0048  3447               	retlw	71	;'G'
   184  0049  3446               	retlw	70	;'F'
   185  004A  343D               	retlw	61	;'='
   186  004B  3431               	retlw	49	;'1'
   187  004C  3400               	retlw	0
   188                           psect	strings
   189                           	
   190  004D                     STR_4:	
   191  004D  3447               	retlw	71	;'G'
   192  004E  3453               	retlw	83	;'S'
   193  004F  344D               	retlw	77	;'M'
   194  0050  3420               	retlw	32	;' '
   195  0051  3443               	retlw	67	;'C'
   196  0052  3448               	retlw	72	;'H'
   197  0053  3445               	retlw	69	;'E'
   198  0054  3443               	retlw	67	;'C'
   199  0055  344B               	retlw	75	;'K'
   200  0056  3400               	retlw	0
   201                           psect	strings
   202                           	
   203  0057                     STR_1:	
   204  0057  3441               	retlw	65	;'A'
   205  0058  3454               	retlw	84	;'T'
   206  0059  3400               	retlw	0
   207                           psect	strings
   208                           	file	"gsm_receiver.as"
   209                           	line	#
   210                           psect cinit,class=CODE,delta=2
   211                           global start_initialization
   212  02BE                     start_initialization:
   213                           
   214                           psect	bssCOMMON,class=COMMON,space=1
   215                           global __pbssCOMMON
   216  0070                     __pbssCOMMON:
   217  0070                     _data_count:
   218  0070                            ds      2
   219                           
   220  0072                     _data_received:
   221  0072                            ds      2
   222                           
   223  0074                     _temp:
   224  0074                            ds      1
   225                           
   226                           psect	bssBANK0,class=BANK0,space=1
   227                           global __pbssBANK0
   228  0020                     __pbssBANK0:
   229  0020                     _count:
   230  0020                            ds      2
   231                           
   232  0022                     _store_value:
   233  0022                            ds      2
   234                           
   235  0024                     _rx_value:
   236  0024                            ds      30
   237                           
   238                           psect clrtext,class=CODE,delta=2
   239                           global clear_ram
   240                           ;	Called with FSR containing the base address, and
   241                           ;	W with the last address+1
   242  02DB                     clear_ram:
   243  02DB  0064               	clrwdt			;clear the watchdog before getting into this loop
   244  02DC                     clrloop:
   245  02DC  0180               	clrf	indf		;clear RAM location pointed to by FSR
   246  02DD  0A84               	incf	fsr,f		;increment pointer
   247  02DE  0604               	xorwf	fsr,w		;XOR with final address
   248  02DF  1903               	btfsc	status,2	;have we reached the end yet?
   249  02E0  3400               	retlw	0		;all done for this memory range, return
   250  02E1  0604               	xorwf	fsr,w		;XOR again to restore value
   251  02E2  2ADC               	goto	clrloop		;do the next byte
   252                           
   253                           ; Clear objects allocated to COMMON
   254                           psect cinit,class=CODE,delta=2
   255  02BE  01F0               	clrf	((__pbssCOMMON)+0)&07Fh
   256  02BF  01F1               	clrf	((__pbssCOMMON)+1)&07Fh
   257  02C0  01F2               	clrf	((__pbssCOMMON)+2)&07Fh
   258  02C1  01F3               	clrf	((__pbssCOMMON)+3)&07Fh
   259  02C2  01F4               	clrf	((__pbssCOMMON)+4)&07Fh
   260                           ; Clear objects allocated to BANK0
   261                           psect cinit,class=CODE,delta=2
   262  02C3  1383               	bcf	status, 7	;select IRP bank0
   263  02C4  3020               	movlw	low(__pbssBANK0)
   264  02C5  0084               	movwf	fsr
   265  02C6  3042               	movlw	low((__pbssBANK0)+022h)
   266  02C7  120A  118A  22DB   	fcall	clear_ram
              120A  118A         
   267                           psect cinit,class=CODE,delta=2
   268                           global end_of_initialization
   269                           
   270                           ;End of C runtime variable initialization code
   271                           
   272  02CC                     end_of_initialization:
   273  02CC  0183               clrf status
   274  02CD  120A  118A  285A   ljmp _main	;jump to C main() function
   275                           psect	cstackCOMMON,class=COMMON,space=1
   276                           global __pcstackCOMMON
   277  0075                     __pcstackCOMMON:
   278                           	global	?_uart_tx
   279  0075                     ?_uart_tx:	; 0 bytes @ 0x0
   280                           	global	?_uart_tx_char
   281  0075                     ?_uart_tx_char:	; 0 bytes @ 0x0
   282                           	global	?_sms_text_mode
   283  0075                     ?_sms_text_mode:	; 0 bytes @ 0x0
   284                           	global	?_uart_rx
   285  0075                     ?_uart_rx:	; 0 bytes @ 0x0
   286                           	global	??_uart_rx
   287  0075                     ??_uart_rx:	; 0 bytes @ 0x0
   288                           	global	?_string_clear
   289  0075                     ?_string_clear:	; 0 bytes @ 0x0
   290                           	global	?_pulse
   291  0075                     ?_pulse:	; 0 bytes @ 0x0
   292                           	global	?_main
   293  0075                     ?_main:	; 0 bytes @ 0x0
   294  0075                     	ds	5
   295                           psect	cstackBANK0,class=BANK0,space=1
   296                           global __pcstackBANK0
   297  0042                     __pcstackBANK0:
   298                           	global	??_uart_tx
   299  0042                     ??_uart_tx:	; 0 bytes @ 0x0
   300                           	global	??_uart_tx_char
   301  0042                     ??_uart_tx_char:	; 0 bytes @ 0x0
   302                           	global	??_string_clear
   303  0042                     ??_string_clear:	; 0 bytes @ 0x0
   304                           	global	??_pulse
   305  0042                     ??_pulse:	; 0 bytes @ 0x0
   306                           	global	string_clear@str_clr
   307  0042                     string_clear@str_clr:	; 2 bytes @ 0x0
   308  0042                     	ds	2
   309                           	global	?_display_cmd
   310  0044                     ?_display_cmd:	; 0 bytes @ 0x2
   311                           	global	?_display_str
   312  0044                     ?_display_str:	; 0 bytes @ 0x2
   313                           	global	display_cmd@cmd
   314  0044                     display_cmd@cmd:	; 2 bytes @ 0x2
   315                           	global	display_str@data
   316  0044                     display_str@data:	; 2 bytes @ 0x2
   317  0044                     	ds	1
   318                           	global	uart_tx@send_data
   319  0045                     uart_tx@send_data:	; 1 bytes @ 0x3
   320                           	global	uart_tx_char@send_data
   321  0045                     uart_tx_char@send_data:	; 1 bytes @ 0x3
   322  0045                     	ds	1
   323                           	global	??_sms_text_mode
   324  0046                     ??_sms_text_mode:	; 0 bytes @ 0x4
   325                           	global	??_display_cmd
   326  0046                     ??_display_cmd:	; 0 bytes @ 0x4
   327                           	global	??_display_str
   328  0046                     ??_display_str:	; 0 bytes @ 0x4
   329  0046                     	ds	2
   330                           	global	??_main
   331  0048                     ??_main:	; 0 bytes @ 0x6
   332  0048                     	ds	3
   333 ;;Data sizes: Strings 53, constant 0, data 0, bss 39, persistent 0 stack 0
   334 ;;Auto spaces:   Size  Autos    Used
   335 ;; COMMON          14      5      10
   336 ;; BANK0           80      9      43
   337 ;; BANK1           80      0       0
   338 ;; BANK3           96      0       0
   339 ;; BANK2           96      0       0
   340                           
   341 ;;
   342 ;; Pointer list with targets:
   343                           
   344 ;; display_str@data	PTR const unsigned char  size(2) Largest target is 30
   345 ;;		 -> STR_5(CODE[12]), STR_4(CODE[10]), rx_value(BANK0[30]), 
   346 ;;
   347 ;; uart_tx@send_data	PTR const unsigned char  size(1) Largest target is 18
   348 ;;		 -> STR_3(CODE[18]), STR_2(CODE[10]), STR_1(CODE[3]), 
   349 ;;
   350                           
   351                           
   352 ;;
   353 ;; Critical Paths under _main in COMMON
   354 ;;
   355 ;;   None.
   356 ;;
   357 ;; Critical Paths under _uart_rx in COMMON
   358 ;;
   359 ;;   None.
   360 ;;
   361 ;; Critical Paths under _main in BANK0
   362 ;;
   363 ;;   _main->_sms_text_mode
   364 ;;   _display_str->_pulse
   365 ;;   _display_cmd->_pulse
   366 ;;   _sms_text_mode->_uart_tx
   367 ;;   _sms_text_mode->_uart_tx_char
   368 ;;
   369 ;; Critical Paths under _uart_rx in BANK0
   370 ;;
   371 ;;   None.
   372 ;;
   373 ;; Critical Paths under _main in BANK1
   374 ;;
   375 ;;   None.
   376 ;;
   377 ;; Critical Paths under _uart_rx in BANK1
   378 ;;
   379 ;;   None.
   380 ;;
   381 ;; Critical Paths under _main in BANK3
   382 ;;
   383 ;;   None.
   384 ;;
   385 ;; Critical Paths under _uart_rx in BANK3
   386 ;;
   387 ;;   None.
   388 ;;
   389 ;; Critical Paths under _main in BANK2
   390 ;;
   391 ;;   None.
   392 ;;
   393 ;; Critical Paths under _uart_rx in BANK2
   394 ;;
   395 ;;   None.
   396                           
   397 ;;
   398 ;;Main: autosize = 0, tempsize = 3, incstack = 0, save=0
   399 ;;
   400                           
   401 ;;
   402 ;;Call Graph Tables:
   403 ;;
   404 ;; ---------------------------------------------------------------------------------
   405 ;; (Depth) Function   	        Calls       Base Space   Used Autos Params    Refs
   406 ;; ---------------------------------------------------------------------------------
   407 ;; (0) _main                                                 3     3      0     291
   408 ;;                                              6 BANK0      3     3      0
   409 ;;                        _display_cmd
   410 ;;                      _sms_text_mode
   411 ;;                        _display_str
   412 ;;                       _string_clear
   413 ;; ---------------------------------------------------------------------------------
   414 ;; (1) _display_str                                          2     0      2      65
   415 ;;                                              2 BANK0      2     0      2
   416 ;;                              _pulse
   417 ;; ---------------------------------------------------------------------------------
   418 ;; (1) _display_cmd                                          2     0      2      31
   419 ;;                                              2 BANK0      2     0      2
   420 ;;                              _pulse
   421 ;; ---------------------------------------------------------------------------------
   422 ;; (1) _sms_text_mode                                        2     2      0      96
   423 ;;                                              4 BANK0      2     2      0
   424 ;;                            _uart_tx
   425 ;;                       _uart_tx_char
   426 ;; ---------------------------------------------------------------------------------
   427 ;; (2) _pulse                                                2     2      0       0
   428 ;;                                              0 BANK0      2     2      0
   429 ;; ---------------------------------------------------------------------------------
   430 ;; (2) _uart_tx_char                                         4     4      0      31
   431 ;;                                              0 BANK0      4     4      0
   432 ;; ---------------------------------------------------------------------------------
   433 ;; (3) _uart_tx                                              4     4      0      65
   434 ;;                                              0 BANK0      4     4      0
   435 ;; ---------------------------------------------------------------------------------
   436 ;; (1) _string_clear                                         2     2      0      99
   437 ;;                                              0 BANK0      2     2      0
   438 ;; ---------------------------------------------------------------------------------
   439 ;; Estimated maximum stack depth 3
   440 ;; ---------------------------------------------------------------------------------
   441 ;; (Depth) Function   	        Calls       Base Space   Used Autos Params    Refs
   442 ;; ---------------------------------------------------------------------------------
   443 ;; (4) _uart_rx                                              5     5      0       0
   444 ;;                                              0 COMMON     5     5      0
   445 ;; ---------------------------------------------------------------------------------
   446 ;; Estimated maximum stack depth 4
   447 ;; ---------------------------------------------------------------------------------
   448                           
   449 ;; Call Graph Graphs:
   450                           
   451 ;; _main (ROOT)
   452 ;;   _display_cmd
   453 ;;     _pulse
   454 ;;   _sms_text_mode
   455 ;;     _uart_tx
   456 ;;     _uart_tx_char
   457 ;;   _display_str
   458 ;;     _pulse
   459 ;;   _string_clear
   460 ;;
   461 ;; _uart_rx (ROOT)
   462 ;;
   463                           
   464 ;; Address spaces:
   465                           
   466 ;;Name               Size   Autos  Total    Cost      Usage
   467 ;;BITCOMMON            E      0       0       0        0.0%
   468 ;;EEDATA             100      0       0       0        0.0%
   469 ;;NULL                 0      0       0       0        0.0%
   470 ;;CODE                 0      0       0       0        0.0%
   471 ;;COMMON               E      5       A       1       71.4%
   472 ;;BITSFR0              0      0       0       1        0.0%
   473 ;;SFR0                 0      0       0       1        0.0%
   474 ;;BITSFR1              0      0       0       2        0.0%
   475 ;;SFR1                 0      0       0       2        0.0%
   476 ;;STACK                0      0       3       2        0.0%
   477 ;;ABS                  0      0      35       3        0.0%
   478 ;;BITBANK0            50      0       0       4        0.0%
   479 ;;BITSFR3              0      0       0       4        0.0%
   480 ;;SFR3                 0      0       0       4        0.0%
   481 ;;BANK0               50      9      2B       5       53.8%
   482 ;;BITSFR2              0      0       0       5        0.0%
   483 ;;SFR2                 0      0       0       5        0.0%
   484 ;;BITBANK1            50      0       0       6        0.0%
   485 ;;BANK1               50      0       0       7        0.0%
   486 ;;BITBANK3            60      0       0       8        0.0%
   487 ;;BANK3               60      0       0       9        0.0%
   488 ;;BITBANK2            60      0       0      10        0.0%
   489 ;;BANK2               60      0       0      11        0.0%
   490 ;;DATA                 0      0      38      12        0.0%
   491                           
   492                           	global	_main
   493                           psect	maintext,global,class=CODE,delta=2
   494                           global __pmaintext
   495  005A                     __pmaintext:
   496                           
   497 ;; *************** function _main *****************
   498 ;; Defined at:
   499 ;;		line 122 in file "E:\MANFREE\(PIC)\gsm_receiver\gsm_receiver.c"
   500 ;; Parameters:    Size  Location     Type
   501 ;;		None
   502 ;; Auto vars:     Size  Location     Type
   503 ;;		None
   504 ;; Return value:  Size  Location     Type
   505 ;;		None               void
   506 ;; Registers used:
   507 ;;		wreg, fsr0l, fsr0h, status,2, status,0, btemp+1, pclath, cstack
   508 ;; Tracked objects:
   509 ;;		On entry : 17F/0
   510 ;;		On exit  : 0/0
   511 ;;		Unchanged: 0/0
   512 ;; Data sizes:     COMMON   BANK0   BANK1   BANK3   BANK2
   513 ;;      Params:         0       0       0       0       0
   514 ;;      Locals:         0       0       0       0       0
   515 ;;      Temps:          0       3       0       0       0
   516 ;;      Totals:         0       3       0       0       0
   517 ;;Total ram usage:        3 bytes
   518 ;; Hardware stack levels required when called:    4
   519 ;; This function calls:
   520 ;;		_display_cmd
   521 ;;		_sms_text_mode
   522 ;;		_display_str
   523 ;;		_string_clear
   524 ;; This function is called by:
   525 ;;		Startup code after reset
   526 ;; This function uses a non-reentrant model
   527 ;;
   528                           psect	maintext
   529                           	file	"E:\MANFREE\(PIC)\gsm_receiver\gsm_receiver.c"
   530                           	line	122
   531                           	global	__size_of_main
   532  0104                     	__size_of_main	equ	__end_of_main-_main
   533                           	
   534  005A                     _main:	
   535                           	opt	stack 4
   536                           ; Regs used in _main: [wreg-fsr0h+status,2+status,0+btemp+1+pclath+cstack]
   537                           	line	123
   538                           	
   539  005A                     l2633:	
   540                           ;gsm_receiver.c: 123: TRISC6 = 0;
   541  005A  1683               	bsf	status, 5	;RP0=1, select bank1
   542  005B  1303               	bcf	status, 6	;RP1=0, select bank1
   543  005C  1307               	bcf	(1086/8)^080h,(1086)&7
   544                           	line	124
   545                           ;gsm_receiver.c: 124: TRISC7 = 1;
   546  005D  1787               	bsf	(1087/8)^080h,(1087)&7
   547                           	line	125
   548                           	
   549  005E                     l2635:	
   550                           ;gsm_receiver.c: 125: PORTA = 0X00;
   551  005E  1283               	bcf	status, 5	;RP0=0, select bank0
   552  005F  1303               	bcf	status, 6	;RP1=0, select bank0
   553  0060  0185               	clrf	(5)	;volatile
   554                           	line	126
   555                           ;gsm_receiver.c: 126: TRISA = 0X00;
   556  0061  1683               	bsf	status, 5	;RP0=1, select bank1
   557  0062  1303               	bcf	status, 6	;RP1=0, select bank1
   558  0063  0185               	clrf	(133)^080h	;volatile
   559                           	line	127
   560                           ;gsm_receiver.c: 127: PORTC = 0x00;
   561  0064  1283               	bcf	status, 5	;RP0=0, select bank0
   562  0065  1303               	bcf	status, 6	;RP1=0, select bank0
   563  0066  0187               	clrf	(7)	;volatile
   564                           	line	128
   565                           ;gsm_receiver.c: 128: TRISD = 0x00;
   566  0067  1683               	bsf	status, 5	;RP0=1, select bank1
   567  0068  1303               	bcf	status, 6	;RP1=0, select bank1
   568  0069  0188               	clrf	(136)^080h	;volatile
   569                           	line	129
   570                           ;gsm_receiver.c: 129: PORTD = 0x00;
   571  006A  1283               	bcf	status, 5	;RP0=0, select bank0
   572  006B  1303               	bcf	status, 6	;RP1=0, select bank0
   573  006C  0188               	clrf	(8)	;volatile
   574                           	line	130
   575                           ;gsm_receiver.c: 130: TRISE = 0X00;
   576  006D  1683               	bsf	status, 5	;RP0=1, select bank1
   577  006E  1303               	bcf	status, 6	;RP1=0, select bank1
   578  006F  0189               	clrf	(137)^080h	;volatile
   579                           	line	131
   580                           ;gsm_receiver.c: 131: PORTE = 0X00;
   581  0070  1283               	bcf	status, 5	;RP0=0, select bank0
   582  0071  1303               	bcf	status, 6	;RP1=0, select bank0
   583  0072  0189               	clrf	(9)	;volatile
   584                           	line	132
   585                           	
   586  0073                     l2637:	
   587                           ;gsm_receiver.c: 132: TXSTA = 0X26;
   588  0073  3026               	movlw	(026h)
   589  0074  1683               	bsf	status, 5	;RP0=1, select bank1
   590  0075  1303               	bcf	status, 6	;RP1=0, select bank1
   591  0076  0098               	movwf	(152)^080h	;volatile
   592                           	line	133
   593                           	
   594  0077                     l2639:	
   595                           ;gsm_receiver.c: 133: RCSTA = 0X90;
   596  0077  3090               	movlw	(090h)
   597  0078  1283               	bcf	status, 5	;RP0=0, select bank0
   598  0079  1303               	bcf	status, 6	;RP1=0, select bank0
   599  007A  0098               	movwf	(24)	;volatile
   600                           	line	134
   601                           	
   602  007B                     l2641:	
   603                           ;gsm_receiver.c: 134: SPBRG = 25;
   604  007B  3019               	movlw	(019h)
   605  007C  1683               	bsf	status, 5	;RP0=1, select bank1
   606  007D  1303               	bcf	status, 6	;RP1=0, select bank1
   607  007E  0099               	movwf	(153)^080h	;volatile
   608                           	line	135
   609                           	
   610  007F                     l2643:	
   611                           ;gsm_receiver.c: 135: ANSEL = 0x00;
   612  007F  1683               	bsf	status, 5	;RP0=1, select bank3
   613  0080  1703               	bsf	status, 6	;RP1=1, select bank3
   614  0081  0188               	clrf	(392)^0180h	;volatile
   615                           	line	136
   616                           	
   617  0082                     l2645:	
   618                           ;gsm_receiver.c: 136: ANSELH = 0x00;
   619  0082  0189               	clrf	(393)^0180h	;volatile
   620                           	line	137
   621                           	
   622  0083                     l2647:	
   623                           ;gsm_receiver.c: 137: display_cmd(0x38);
   624  0083  3038               	movlw	low(038h)
   625  0084  1283               	bcf	status, 5	;RP0=0, select bank0
   626  0085  1303               	bcf	status, 6	;RP1=0, select bank0
   627  0086  00C4               	movwf	(?_display_cmd)
   628  0087  3000               	movlw	high(038h)
   629  0088  00C5               	movwf	((?_display_cmd))+1
   630  0089  120A  118A  22D0   	fcall	_display_cmd
              120A  118A         
   631                           	line	138
   632                           	
   633  008E                     l2649:	
   634                           ;gsm_receiver.c: 138: display_cmd(0x0E);
   635  008E  300E               	movlw	low(0Eh)
   636  008F  1283               	bcf	status, 5	;RP0=0, select bank0
   637  0090  1303               	bcf	status, 6	;RP1=0, select bank0
   638  0091  00C4               	movwf	(?_display_cmd)
   639  0092  3000               	movlw	high(0Eh)
   640  0093  00C5               	movwf	((?_display_cmd))+1
   641  0094  120A  118A  22D0   	fcall	_display_cmd
              120A  118A         
   642                           	line	139
   643                           	
   644  0099                     l2651:	
   645                           ;gsm_receiver.c: 139: _delay((unsigned long)((1000)*(4000000/4000.0)));
   646                           	opt asmopt_off
   647  0099  3006               movlw  6
   648  009A  1283               	bcf	status, 5	;RP0=0, select bank0
   649  009B  1303               	bcf	status, 6	;RP1=0, select bank0
   650  009C  00CA               movwf	((??_main+0)+0+2),f
   651  009D  300E               movlw	14
   652  009E  00C9               movwf	((??_main+0)+0+1),f
   653  009F  30B0               	movlw	176
   654  00A0  00C8               movwf	((??_main+0)+0),f
   655  00A1                     u2677:
   656  00A1  0BC8               	decfsz	((??_main+0)+0),f
   657  00A2  28A1               	goto	u2677
   658  00A3  0BC9               	decfsz	((??_main+0)+0+1),f
   659  00A4  28A1               	goto	u2677
   660  00A5  0BCA               	decfsz	((??_main+0)+0+2),f
   661  00A6  28A1               	goto	u2677
   662                           opt asmopt_on
   663                           
   664                           	line	140
   665                           	
   666  00A7                     l2653:	
   667                           ;gsm_receiver.c: 140: sms_text_mode();
   668  00A7  120A  118A  215E   	fcall	_sms_text_mode
              120A  118A         
   669                           	line	142
   670                           	
   671  00AC                     l2655:	
   672                           ;gsm_receiver.c: 142: GIE = PEIE = RCIE = 1;
   673  00AC  1683               	bsf	status, 5	;RP0=1, select bank1
   674  00AD  1303               	bcf	status, 6	;RP1=0, select bank1
   675  00AE  168C               	bsf	(1125/8)^080h,(1125)&7
   676  00AF  1A8C               	btfsc	(1125/8)^080h,(1125)&7
   677  00B0  28B2               	goto	u2581
   678  00B1  28B4               	goto	u2580
   679                           	
   680  00B2                     u2581:
   681  00B2  170B               	bsf	(94/8),(94)&7
   682  00B3  28B5               	goto	u2594
   683  00B4                     u2580:
   684  00B4  130B               	bcf	(94/8),(94)&7
   685  00B5                     u2594:
   686  00B5  1B0B               	btfsc	(94/8),(94)&7
   687  00B6  28B8               	goto	u2591
   688  00B7  28BA               	goto	u2590
   689                           	
   690  00B8                     u2591:
   691  00B8  178B               	bsf	(95/8),(95)&7
   692  00B9  28BB               	goto	u2604
   693  00BA                     u2590:
   694  00BA  138B               	bcf	(95/8),(95)&7
   695  00BB                     u2604:
   696                           	line	143
   697                           	
   698  00BB                     l2657:	
   699                           ;gsm_receiver.c: 143: display_cmd(0x80);
   700  00BB  3080               	movlw	low(080h)
   701  00BC  1283               	bcf	status, 5	;RP0=0, select bank0
   702  00BD  1303               	bcf	status, 6	;RP1=0, select bank0
   703  00BE  00C4               	movwf	(?_display_cmd)
   704  00BF  3000               	movlw	high(080h)
   705  00C0  00C5               	movwf	((?_display_cmd))+1
   706  00C1  120A  118A  22D0   	fcall	_display_cmd
              120A  118A         
   707                           	line	144
   708                           	
   709  00C6                     l2659:	
   710                           ;gsm_receiver.c: 144: display_cmd(0x01);
   711  00C6  3001               	movlw	low(01h)
   712  00C7  1283               	bcf	status, 5	;RP0=0, select bank0
   713  00C8  1303               	bcf	status, 6	;RP1=0, select bank0
   714  00C9  00C4               	movwf	(?_display_cmd)
   715  00CA  3000               	movlw	high(01h)
   716  00CB  00C5               	movwf	((?_display_cmd))+1
   717  00CC  120A  118A  22D0   	fcall	_display_cmd
              120A  118A         
   718                           	line	145
   719                           	
   720  00D1                     l2661:	
   721                           ;gsm_receiver.c: 145: display_str("GSM CHECK");
   722  00D1  3029               	movlw	low((STR_4-__stringbase))
   723  00D2  1283               	bcf	status, 5	;RP0=0, select bank0
   724  00D3  1303               	bcf	status, 6	;RP1=0, select bank0
   725  00D4  00C4               	movwf	(?_display_str)
   726  00D5  3080               	movlw	80h
   727  00D6  00C5               	movwf	(?_display_str+1)
   728  00D7  120A  118A  2263   	fcall	_display_str
              120A  118A         
   729  00DC  28DD               	goto	l2663
   730                           	line	147
   731                           ;gsm_receiver.c: 147: while (1)
   732                           	
   733  00DD                     l1088:	
   734                           	line	149
   735                           	
   736  00DD                     l2663:	
   737                           ;gsm_receiver.c: 148: {
   738                           ;gsm_receiver.c: 149: if (data_received == 1)
   739  00DD  3001               	movlw	01h
   740  00DE  0672               	xorwf	(_data_received),w
   741  00DF  0473               	iorwf	(_data_received+1),w
   742  00E0  1D03               	skipz
   743  00E1  28E3               	goto	u2611
   744  00E2  28E4               	goto	u2610
   745  00E3                     u2611:
   746  00E3  294B               	goto	l2695
   747  00E4                     u2610:
   748                           	line	151
   749                           	
   750  00E4                     l2665:	
   751                           ;gsm_receiver.c: 150: {
   752                           ;gsm_receiver.c: 151: display_cmd(0x01);
   753  00E4  3001               	movlw	low(01h)
   754  00E5  1283               	bcf	status, 5	;RP0=0, select bank0
   755  00E6  1303               	bcf	status, 6	;RP1=0, select bank0
   756  00E7  00C4               	movwf	(?_display_cmd)
   757  00E8  3000               	movlw	high(01h)
   758  00E9  00C5               	movwf	((?_display_cmd))+1
   759  00EA  120A  118A  22D0   	fcall	_display_cmd
              120A  118A         
   760                           	line	152
   761                           ;gsm_receiver.c: 152: display_cmd(0x80);
   762  00EF  3080               	movlw	low(080h)
   763  00F0  1283               	bcf	status, 5	;RP0=0, select bank0
   764  00F1  1303               	bcf	status, 6	;RP1=0, select bank0
   765  00F2  00C4               	movwf	(?_display_cmd)
   766  00F3  3000               	movlw	high(080h)
   767  00F4  00C5               	movwf	((?_display_cmd))+1
   768  00F5  120A  118A  22D0   	fcall	_display_cmd
              120A  118A         
   769                           	line	153
   770                           	
   771  00FA                     l2667:	
   772                           ;gsm_receiver.c: 153: display_str("RECIVED MSG");
   773  00FA  3013               	movlw	low((STR_5-__stringbase))
   774  00FB  1283               	bcf	status, 5	;RP0=0, select bank0
   775  00FC  1303               	bcf	status, 6	;RP1=0, select bank0
   776  00FD  00C4               	movwf	(?_display_str)
   777  00FE  3080               	movlw	80h
   778  00FF  00C5               	movwf	(?_display_str+1)
   779  0100  120A  118A  2263   	fcall	_display_str
              120A  118A         
   780                           	line	155
   781                           	
   782  0105                     l2669:	
   783                           ;gsm_receiver.c: 155: if ((rx_value[0] == 'o') && (rx_value[1] == 'n'))
   784  0105  1283               	bcf	status, 5	;RP0=0, select bank0
   785  0106  1303               	bcf	status, 6	;RP1=0, select bank0
   786  0107  0824               	movf	(_rx_value),w
   787  0108  3A6F               	xorlw	06Fh
   788  0109  1D03               	skipz
   789  010A  290C               	goto	u2621
   790  010B  290D               	goto	u2620
   791  010C                     u2621:
   792  010C  2915               	goto	l2675
   793  010D                     u2620:
   794                           	
   795  010D                     l2671:	
   796  010D  0825               	movf	0+(_rx_value)+01h,w
   797  010E  3A6E               	xorlw	06Eh
   798  010F  1D03               	skipz
   799  0110  2912               	goto	u2631
   800  0111  2913               	goto	u2630
   801  0112                     u2631:
   802  0112  2915               	goto	l2675
   803  0113                     u2630:
   804                           	line	157
   805                           	
   806  0113                     l2673:	
   807                           ;gsm_receiver.c: 156: {
   808                           ;gsm_receiver.c: 157: RA0 = 1;
   809  0113  1405               	bsf	(40/8),(40)&7
   810  0114  2915               	goto	l2675
   811                           	line	158
   812                           	
   813  0115                     l1090:	
   814                           	line	159
   815                           	
   816  0115                     l2675:	
   817                           ;gsm_receiver.c: 158: }
   818                           ;gsm_receiver.c: 159: if ((rx_value[0] == 'o') && (rx_value[1] == 'f') && (rx_value[2] =
                                 = 'f'))
   819  0115  0824               	movf	(_rx_value),w
   820  0116  3A6F               	xorlw	06Fh
   821  0117  1D03               	skipz
   822  0118  291A               	goto	u2641
   823  0119  291B               	goto	u2640
   824  011A                     u2641:
   825  011A  2929               	goto	l2683
   826  011B                     u2640:
   827                           	
   828  011B                     l2677:	
   829  011B  0825               	movf	0+(_rx_value)+01h,w
   830  011C  3A66               	xorlw	066h
   831  011D  1D03               	skipz
   832  011E  2920               	goto	u2651
   833  011F  2921               	goto	u2650
   834  0120                     u2651:
   835  0120  2929               	goto	l2683
   836  0121                     u2650:
   837                           	
   838  0121                     l2679:	
   839  0121  0826               	movf	0+(_rx_value)+02h,w
   840  0122  3A66               	xorlw	066h
   841  0123  1D03               	skipz
   842  0124  2926               	goto	u2661
   843  0125  2927               	goto	u2660
   844  0126                     u2661:
   845  0126  2929               	goto	l2683
   846  0127                     u2660:
   847                           	line	161
   848                           	
   849  0127                     l2681:	
   850                           ;gsm_receiver.c: 160: {
   851                           ;gsm_receiver.c: 161: RA0 = 0;
   852  0127  1005               	bcf	(40/8),(40)&7
   853  0128  2929               	goto	l2683
   854                           	line	162
   855                           	
   856  0129                     l1091:	
   857                           	line	163
   858                           	
   859  0129                     l2683:	
   860                           ;gsm_receiver.c: 162: }
   861                           ;gsm_receiver.c: 163: display_cmd(0xC0);
   862  0129  30C0               	movlw	low(0C0h)
   863  012A  00C4               	movwf	(?_display_cmd)
   864  012B  3000               	movlw	high(0C0h)
   865  012C  00C5               	movwf	((?_display_cmd))+1
   866  012D  120A  118A  22D0   	fcall	_display_cmd
              120A  118A         
   867                           	line	164
   868                           	
   869  0132                     l2685:	
   870                           ;gsm_receiver.c: 164: display_str(rx_value);
   871  0132  3024               	movlw	(_rx_value&0ffh)
   872  0133  1283               	bcf	status, 5	;RP0=0, select bank0
   873  0134  1303               	bcf	status, 6	;RP1=0, select bank0
   874  0135  00C4               	movwf	(?_display_str)
   875  0136  3000               	movlw	(0x0/2)
   876  0137  00C5               	movwf	(?_display_str+1)
   877  0138  120A  118A  2263   	fcall	_display_str
              120A  118A         
   878                           	line	165
   879                           	
   880  013D                     l2687:	
   881                           ;gsm_receiver.c: 165: data_count = 0;
   882  013D  01F0               	clrf	(_data_count)
   883  013E  01F1               	clrf	(_data_count+1)
   884                           	line	166
   885                           	
   886  013F                     l2689:	
   887                           ;gsm_receiver.c: 166: count = 0;
   888  013F  1283               	bcf	status, 5	;RP0=0, select bank0
   889  0140  1303               	bcf	status, 6	;RP1=0, select bank0
   890  0141  01A0               	clrf	(_count)
   891  0142  01A1               	clrf	(_count+1)
   892                           	line	167
   893                           	
   894  0143                     l2691:	
   895                           ;gsm_receiver.c: 167: string_clear();
   896  0143  120A  118A  2234   	fcall	_string_clear
              120A  118A         
   897                           	line	168
   898                           	
   899  0148                     l2693:	
   900                           ;gsm_receiver.c: 168: data_received = 0;
   901  0148  01F2               	clrf	(_data_received)
   902  0149  01F3               	clrf	(_data_received+1)
   903  014A  294B               	goto	l2695
   904                           	line	169
   905                           	
   906  014B                     l1089:	
   907                           	line	170
   908                           	
   909  014B                     l2695:	
   910                           ;gsm_receiver.c: 169: }
   911                           ;gsm_receiver.c: 170: _delay((unsigned long)((1000)*(4000000/4000.0)));
   912                           	opt asmopt_off
   913  014B  3006               movlw  6
   914  014C  1283               	bcf	status, 5	;RP0=0, select bank0
   915  014D  1303               	bcf	status, 6	;RP1=0, select bank0
   916  014E  00CA               movwf	((??_main+0)+0+2),f
   917  014F  300E               movlw	14
   918  0150  00C9               movwf	((??_main+0)+0+1),f
   919  0151  30B0               	movlw	176
   920  0152  00C8               movwf	((??_main+0)+0),f
   921  0153                     u2687:
   922  0153  0BC8               	decfsz	((??_main+0)+0),f
   923  0154  2953               	goto	u2687
   924  0155  0BC9               	decfsz	((??_main+0)+0+1),f
   925  0156  2953               	goto	u2687
   926  0157  0BCA               	decfsz	((??_main+0)+0+2),f
   927  0158  2953               	goto	u2687
   928                           opt asmopt_on
   929                           
   930  0159  28DD               	goto	l2663
   931                           	line	171
   932                           	
   933  015A                     l1092:	
   934                           	line	147
   935  015A  28DD               	goto	l2663
   936                           	
   937  015B                     l1093:	
   938                           	line	172
   939                           	
   940  015B                     l1094:	
   941                           	global	start
   942  015B  120A  118A  2812   	ljmp	start
   943                           	opt stack 0
   944                           GLOBAL	__end_of_main
   945  015E                     	__end_of_main:
   946 ;; =============== function _main ends ============
   947                           
   948                           	signat	_main,88
   949                           	global	_display_str
   950                           psect	text347,local,class=CODE,delta=2
   951                           global __ptext347
   952  0263                     __ptext347:
   953                           
   954 ;; *************** function _display_str *****************
   955 ;; Defined at:
   956 ;;		line 113 in file "E:\MANFREE\(PIC)\gsm_receiver\gsm_receiver.c"
   957 ;; Parameters:    Size  Location     Type
   958 ;;  data            2    2[BANK0 ] PTR const unsigned char 
   959 ;;		 -> STR_5(12), STR_4(10), rx_value(30), 
   960 ;; Auto vars:     Size  Location     Type
   961 ;;		None
   962 ;; Return value:  Size  Location     Type
   963 ;;		None               void
   964 ;; Registers used:
   965 ;;		wreg, fsr0l, fsr0h, status,2, status,0, btemp+1, pclath, cstack
   966 ;; Tracked objects:
   967 ;;		On entry : 0/0
   968 ;;		On exit  : 0/0
   969 ;;		Unchanged: 0/0
   970 ;; Data sizes:     COMMON   BANK0   BANK1   BANK3   BANK2
   971 ;;      Params:         0       2       0       0       0
   972 ;;      Locals:         0       0       0       0       0
   973 ;;      Temps:          0       0       0       0       0
   974 ;;      Totals:         0       2       0       0       0
   975 ;;Total ram usage:        2 bytes
   976 ;; Hardware stack levels used:    1
   977 ;; Hardware stack levels required when called:    2
   978 ;; This function calls:
   979 ;;		_pulse
   980 ;; This function is called by:
   981 ;;		_main
   982 ;; This function uses a non-reentrant model
   983 ;;
   984                           psect	text347
   985                           	file	"E:\MANFREE\(PIC)\gsm_receiver\gsm_receiver.c"
   986                           	line	113
   987                           	global	__size_of_display_str
   988  002A                     	__size_of_display_str	equ	__end_of_display_str-_display_str
   989                           	
   990  0263                     _display_str:	
   991                           	opt	stack 5
   992                           ; Regs used in _display_str: [wreg-fsr0h+status,2+status,0+btemp+1+pclath+cstack]
   993                           	line	114
   994                           	
   995  0263                     l2623:	
   996                           ;gsm_receiver.c: 114: while (*data)
   997  0263  2A7B               	goto	l2631
   998                           	
   999  0264                     l1083:	
  1000                           	line	116
  1001                           ;gsm_receiver.c: 115: {
  1002                           ;gsm_receiver.c: 116: RE0 = 1;
  1003  0264  1409               	bsf	(72/8),(72)&7
  1004                           	line	117
  1005                           	
  1006  0265                     l2625:	
  1007                           ;gsm_receiver.c: 117: PORTD = *data++;
  1008  0265  0845               	movf	(display_str@data+1),w
  1009  0266  00FF               	movwf	btemp+1
  1010  0267  0844               	movf	(display_str@data),w
  1011  0268  0084               	movwf	fsr0
  1012  0269  120A  118A  2015   	fcall	stringtab
              120A  118A         
  1013  026E  0088               	movwf	(8)	;volatile
  1014                           	
  1015  026F                     l2627:	
  1016  026F  3001               	movlw	low(01h)
  1017  0270  07C4               	addwf	(display_str@data),f
  1018  0271  1803               	skipnc
  1019  0272  0AC5               	incf	(display_str@data+1),f
  1020  0273  3000               	movlw	high(01h)
  1021  0274  07C5               	addwf	(display_str@data+1),f
  1022                           	line	118
  1023                           	
  1024  0275                     l2629:	
  1025                           ;gsm_receiver.c: 118: pulse();
  1026  0275  120A  118A  228D   	fcall	_pulse
              120A  118A         
  1027  027A  2A7B               	goto	l2631
  1028                           	line	119
  1029                           	
  1030  027B                     l1082:	
  1031                           	line	114
  1032                           	
  1033  027B                     l2631:	
  1034  027B  1283               	bcf	status, 5	;RP0=0, select bank0
  1035  027C  1303               	bcf	status, 6	;RP1=0, select bank0
  1036  027D  0845               	movf	(display_str@data+1),w
  1037  027E  00FF               	movwf	btemp+1
  1038  027F  0844               	movf	(display_str@data),w
  1039  0280  0084               	movwf	fsr0
  1040  0281  120A  118A  2015   	fcall	stringtab
              120A  118A         
  1041  0286  3800               	iorlw	0
  1042  0287  1D03               	skipz
  1043  0288  2A8A               	goto	u2571
  1044  0289  2A8B               	goto	u2570
  1045  028A                     u2571:
  1046  028A  2A64               	goto	l1083
  1047  028B                     u2570:
  1048  028B  2A8C               	goto	l1085
  1049                           	
  1050  028C                     l1084:	
  1051                           	line	120
  1052                           	
  1053  028C                     l1085:	
  1054  028C  0008               	return
  1055                           	opt stack 0
  1056                           GLOBAL	__end_of_display_str
  1057  028D                     	__end_of_display_str:
  1058 ;; =============== function _display_str ends ============
  1059                           
  1060                           	signat	_display_str,4216
  1061                           	global	_display_cmd
  1062                           psect	text348,local,class=CODE,delta=2
  1063                           global __ptext348
  1064  02D0                     __ptext348:
  1065                           
  1066 ;; *************** function _display_cmd *****************
  1067 ;; Defined at:
  1068 ;;		line 99 in file "E:\MANFREE\(PIC)\gsm_receiver\gsm_receiver.c"
  1069 ;; Parameters:    Size  Location     Type
  1070 ;;  cmd             2    2[BANK0 ] int 
  1071 ;; Auto vars:     Size  Location     Type
  1072 ;;		None
  1073 ;; Return value:  Size  Location     Type
  1074 ;;		None               void
  1075 ;; Registers used:
  1076 ;;		wreg, status,2, status,0, pclath, cstack
  1077 ;; Tracked objects:
  1078 ;;		On entry : 0/0
  1079 ;;		On exit  : 0/0
  1080 ;;		Unchanged: 0/0
  1081 ;; Data sizes:     COMMON   BANK0   BANK1   BANK3   BANK2
  1082 ;;      Params:         0       2       0       0       0
  1083 ;;      Locals:         0       0       0       0       0
  1084 ;;      Temps:          0       0       0       0       0
  1085 ;;      Totals:         0       2       0       0       0
  1086 ;;Total ram usage:        2 bytes
  1087 ;; Hardware stack levels used:    1
  1088 ;; Hardware stack levels required when called:    2
  1089 ;; This function calls:
  1090 ;;		_pulse
  1091 ;; This function is called by:
  1092 ;;		_main
  1093 ;; This function uses a non-reentrant model
  1094 ;;
  1095                           psect	text348
  1096                           	file	"E:\MANFREE\(PIC)\gsm_receiver\gsm_receiver.c"
  1097                           	line	99
  1098                           	global	__size_of_display_cmd
  1099  000B                     	__size_of_display_cmd	equ	__end_of_display_cmd-_display_cmd
  1100                           	
  1101  02D0                     _display_cmd:	
  1102                           	opt	stack 5
  1103                           ; Regs used in _display_cmd: [wreg+status,2+status,0+pclath+cstack]
  1104                           	line	100
  1105                           	
  1106  02D0                     l2617:	
  1107                           ;gsm_receiver.c: 100: RE0 = 0;
  1108  02D0  1283               	bcf	status, 5	;RP0=0, select bank0
  1109  02D1  1303               	bcf	status, 6	;RP1=0, select bank0
  1110  02D2  1009               	bcf	(72/8),(72)&7
  1111                           	line	101
  1112                           	
  1113  02D3                     l2619:	
  1114                           ;gsm_receiver.c: 101: PORTD = cmd;
  1115  02D3  0844               	movf	(display_cmd@cmd),w
  1116  02D4  0088               	movwf	(8)	;volatile
  1117                           	line	102
  1118                           	
  1119  02D5                     l2621:	
  1120                           ;gsm_receiver.c: 102: pulse();
  1121  02D5  120A  118A  228D   	fcall	_pulse
              120A  118A         
  1122                           	line	103
  1123                           	
  1124  02DA                     l1076:	
  1125  02DA  0008               	return
  1126                           	opt stack 0
  1127                           GLOBAL	__end_of_display_cmd
  1128  02DB                     	__end_of_display_cmd:
  1129 ;; =============== function _display_cmd ends ============
  1130                           
  1131                           	signat	_display_cmd,4216
  1132                           	global	_sms_text_mode
  1133                           psect	text349,local,class=CODE,delta=2
  1134                           global __ptext349
  1135  015E                     __ptext349:
  1136                           
  1137 ;; *************** function _sms_text_mode *****************
  1138 ;; Defined at:
  1139 ;;		line 17 in file "E:\MANFREE\(PIC)\gsm_receiver\gsm_receiver.c"
  1140 ;; Parameters:    Size  Location     Type
  1141 ;;		None
  1142 ;; Auto vars:     Size  Location     Type
  1143 ;;		None
  1144 ;; Return value:  Size  Location     Type
  1145 ;;		None               void
  1146 ;; Registers used:
  1147 ;;		wreg, fsr0l, fsr0h, status,2, status,0, pclath, cstack
  1148 ;; Tracked objects:
  1149 ;;		On entry : 0/0
  1150 ;;		On exit  : 0/0
  1151 ;;		Unchanged: 0/0
  1152 ;; Data sizes:     COMMON   BANK0   BANK1   BANK3   BANK2
  1153 ;;      Params:         0       0       0       0       0
  1154 ;;      Locals:         0       0       0       0       0
  1155 ;;      Temps:          0       2       0       0       0
  1156 ;;      Totals:         0       2       0       0       0
  1157 ;;Total ram usage:        2 bytes
  1158 ;; Hardware stack levels used:    1
  1159 ;; Hardware stack levels required when called:    3
  1160 ;; This function calls:
  1161 ;;		_uart_tx
  1162 ;;		_uart_tx_char
  1163 ;; This function is called by:
  1164 ;;		_main
  1165 ;; This function uses a non-reentrant model
  1166 ;;
  1167                           psect	text349
  1168                           	file	"E:\MANFREE\(PIC)\gsm_receiver\gsm_receiver.c"
  1169                           	line	17
  1170                           	global	__size_of_sms_text_mode
  1171  0058                     	__size_of_sms_text_mode	equ	__end_of_sms_text_mode-_sms_text_mode
  1172                           	
  1173  015E                     _sms_text_mode:	
  1174                           	opt	stack 4
  1175                           ; Regs used in _sms_text_mode: [wreg-fsr0h+status,2+status,0+pclath+cstack]
  1176                           	line	19
  1177                           	
  1178  015E                     l2595:	
  1179                           ;gsm_receiver.c: 19: uart_tx("AT");
  1180  015E  3033               	movlw	((STR_1-__stringbase))&0ffh
  1181  015F  120A  118A  2201   	fcall	_uart_tx
              120A  118A         
  1182                           	line	20
  1183                           	
  1184  0164                     l2597:	
  1185                           ;gsm_receiver.c: 20: uart_tx_char(0X0D);
  1186  0164  300D               	movlw	(0Dh)
  1187  0165  120A  118A  22A6   	fcall	_uart_tx_char
              120A  118A         
  1188                           	line	21
  1189                           	
  1190  016A                     l2599:	
  1191                           ;gsm_receiver.c: 21: uart_tx_char(0X0A);
  1192  016A  300A               	movlw	(0Ah)
  1193  016B  120A  118A  22A6   	fcall	_uart_tx_char
              120A  118A         
  1194                           	line	22
  1195                           	
  1196  0170                     l2601:	
  1197                           ;gsm_receiver.c: 22: _delay((unsigned long)((100)*(4000000/4000.0)));
  1198                           	opt asmopt_off
  1199  0170  3082               movlw	130
  1200  0171  1283               	bcf	status, 5	;RP0=0, select bank0
  1201  0172  1303               	bcf	status, 6	;RP1=0, select bank0
  1202  0173  00C7               movwf	((??_sms_text_mode+0)+0+1),f
  1203  0174  30DD               	movlw	221
  1204  0175  00C6               movwf	((??_sms_text_mode+0)+0),f
  1205  0176                     u2697:
  1206  0176  0BC6               	decfsz	((??_sms_text_mode+0)+0),f
  1207  0177  2976               	goto	u2697
  1208  0178  0BC7               	decfsz	((??_sms_text_mode+0)+0+1),f
  1209  0179  2976               	goto	u2697
  1210  017A  297B               	nop2
  1211                           opt asmopt_on
  1212                           
  1213                           	line	24
  1214                           	
  1215  017B                     l2603:	
  1216                           ;gsm_receiver.c: 24: uart_tx("AT+CMGF=1");
  1217  017B  301F               	movlw	((STR_2-__stringbase))&0ffh
  1218  017C  120A  118A  2201   	fcall	_uart_tx
              120A  118A         
  1219                           	line	25
  1220                           	
  1221  0181                     l2605:	
  1222                           ;gsm_receiver.c: 25: uart_tx_char(0X0D);
  1223  0181  300D               	movlw	(0Dh)
  1224  0182  120A  118A  22A6   	fcall	_uart_tx_char
              120A  118A         
  1225                           	line	26
  1226                           	
  1227  0187                     l2607:	
  1228                           ;gsm_receiver.c: 26: uart_tx_char(0X0A);
  1229  0187  300A               	movlw	(0Ah)
  1230  0188  120A  118A  22A6   	fcall	_uart_tx_char
              120A  118A         
  1231                           	line	27
  1232                           ;gsm_receiver.c: 27: _delay((unsigned long)((100)*(4000000/4000.0)));
  1233                           	opt asmopt_off
  1234  018D  3082               movlw	130
  1235  018E  1283               	bcf	status, 5	;RP0=0, select bank0
  1236  018F  1303               	bcf	status, 6	;RP1=0, select bank0
  1237  0190  00C7               movwf	((??_sms_text_mode+0)+0+1),f
  1238  0191  30DD               	movlw	221
  1239  0192  00C6               movwf	((??_sms_text_mode+0)+0),f
  1240  0193                     u2707:
  1241  0193  0BC6               	decfsz	((??_sms_text_mode+0)+0),f
  1242  0194  2993               	goto	u2707
  1243  0195  0BC7               	decfsz	((??_sms_text_mode+0)+0+1),f
  1244  0196  2993               	goto	u2707
  1245  0197  2998               	nop2
  1246                           opt asmopt_on
  1247                           
  1248                           	line	29
  1249                           	
  1250  0198                     l2609:	
  1251                           ;gsm_receiver.c: 29: uart_tx("AT+CNMI=2,2,0,0,0");
  1252  0198  3001               	movlw	((STR_3-__stringbase))&0ffh
  1253  0199  120A  118A  2201   	fcall	_uart_tx
              120A  118A         
  1254                           	line	30
  1255                           	
  1256  019E                     l2611:	
  1257                           ;gsm_receiver.c: 30: uart_tx_char(0X0D);
  1258  019E  300D               	movlw	(0Dh)
  1259  019F  120A  118A  22A6   	fcall	_uart_tx_char
              120A  118A         
  1260                           	line	31
  1261                           	
  1262  01A4                     l2613:	
  1263                           ;gsm_receiver.c: 31: uart_tx_char(0X0A);
  1264  01A4  300A               	movlw	(0Ah)
  1265  01A5  120A  118A  22A6   	fcall	_uart_tx_char
              120A  118A         
  1266                           	line	32
  1267                           	
  1268  01AA                     l2615:	
  1269                           ;gsm_receiver.c: 32: _delay((unsigned long)((100)*(4000000/4000.0)));
  1270                           	opt asmopt_off
  1271  01AA  3082               movlw	130
  1272  01AB  1283               	bcf	status, 5	;RP0=0, select bank0
  1273  01AC  1303               	bcf	status, 6	;RP1=0, select bank0
  1274  01AD  00C7               movwf	((??_sms_text_mode+0)+0+1),f
  1275  01AE  30DD               	movlw	221
  1276  01AF  00C6               movwf	((??_sms_text_mode+0)+0),f
  1277  01B0                     u2717:
  1278  01B0  0BC6               	decfsz	((??_sms_text_mode+0)+0),f
  1279  01B1  29B0               	goto	u2717
  1280  01B2  0BC7               	decfsz	((??_sms_text_mode+0)+0+1),f
  1281  01B3  29B0               	goto	u2717
  1282  01B4  29B5               	nop2
  1283                           opt asmopt_on
  1284                           
  1285                           	line	33
  1286                           	
  1287  01B5                     l1043:	
  1288  01B5  0008               	return
  1289                           	opt stack 0
  1290                           GLOBAL	__end_of_sms_text_mode
  1291  01B6                     	__end_of_sms_text_mode:
  1292 ;; =============== function _sms_text_mode ends ============
  1293                           
  1294                           	signat	_sms_text_mode,88
  1295                           	global	_pulse
  1296                           psect	text350,local,class=CODE,delta=2
  1297                           global __ptext350
  1298  028D                     __ptext350:
  1299                           
  1300 ;; *************** function _pulse *****************
  1301 ;; Defined at:
  1302 ;;		line 91 in file "E:\MANFREE\(PIC)\gsm_receiver\gsm_receiver.c"
  1303 ;; Parameters:    Size  Location     Type
  1304 ;;		None
  1305 ;; Auto vars:     Size  Location     Type
  1306 ;;		None
  1307 ;; Return value:  Size  Location     Type
  1308 ;;		None               void
  1309 ;; Registers used:
  1310 ;;		wreg
  1311 ;; Tracked objects:
  1312 ;;		On entry : 0/0
  1313 ;;		On exit  : 0/0
  1314 ;;		Unchanged: 0/0
  1315 ;; Data sizes:     COMMON   BANK0   BANK1   BANK3   BANK2
  1316 ;;      Params:         0       0       0       0       0
  1317 ;;      Locals:         0       0       0       0       0
  1318 ;;      Temps:          0       2       0       0       0
  1319 ;;      Totals:         0       2       0       0       0
  1320 ;;Total ram usage:        2 bytes
  1321 ;; Hardware stack levels used:    1
  1322 ;; Hardware stack levels required when called:    1
  1323 ;; This function calls:
  1324 ;;		Nothing
  1325 ;; This function is called by:
  1326 ;;		_display_cmd
  1327 ;;		_display_str
  1328 ;;		_display_data
  1329 ;; This function uses a non-reentrant model
  1330 ;;
  1331                           psect	text350
  1332                           	file	"E:\MANFREE\(PIC)\gsm_receiver\gsm_receiver.c"
  1333                           	line	91
  1334                           	global	__size_of_pulse
  1335  0019                     	__size_of_pulse	equ	__end_of_pulse-_pulse
  1336                           	
  1337  028D                     _pulse:	
  1338                           	opt	stack 5
  1339                           ; Regs used in _pulse: [wreg]
  1340                           	line	92
  1341                           	
  1342  028D                     l2589:	
  1343                           ;gsm_receiver.c: 92: RE1 = 1;
  1344  028D  1283               	bcf	status, 5	;RP0=0, select bank0
  1345  028E  1303               	bcf	status, 6	;RP1=0, select bank0
  1346  028F  1489               	bsf	(73/8),(73)&7
  1347                           	line	93
  1348                           	
  1349  0290                     l2591:	
  1350                           ;gsm_receiver.c: 93: _delay((unsigned long)((10)*(4000000/4000.0)));
  1351                           	opt asmopt_off
  1352  0290  300D               movlw	13
  1353  0291  00C3               movwf	((??_pulse+0)+0+1),f
  1354  0292  30FB               	movlw	251
  1355  0293  00C2               movwf	((??_pulse+0)+0),f
  1356  0294                     u2727:
  1357  0294  0BC2               	decfsz	((??_pulse+0)+0),f
  1358  0295  2A94               	goto	u2727
  1359  0296  0BC3               	decfsz	((??_pulse+0)+0+1),f
  1360  0297  2A94               	goto	u2727
  1361  0298  2A99               	nop2
  1362                           opt asmopt_on
  1363                           
  1364                           	line	94
  1365                           	
  1366  0299                     l2593:	
  1367                           ;gsm_receiver.c: 94: RE1 = 0;
  1368  0299  1283               	bcf	status, 5	;RP0=0, select bank0
  1369  029A  1303               	bcf	status, 6	;RP1=0, select bank0
  1370  029B  1089               	bcf	(73/8),(73)&7
  1371                           	line	95
  1372                           ;gsm_receiver.c: 95: _delay((unsigned long)((10)*(4000000/4000.0)));
  1373                           	opt asmopt_off
  1374  029C  300D               movlw	13
  1375  029D  00C3               movwf	((??_pulse+0)+0+1),f
  1376  029E  30FB               	movlw	251
  1377  029F  00C2               movwf	((??_pulse+0)+0),f
  1378  02A0                     u2737:
  1379  02A0  0BC2               	decfsz	((??_pulse+0)+0),f
  1380  02A1  2AA0               	goto	u2737
  1381  02A2  0BC3               	decfsz	((??_pulse+0)+0+1),f
  1382  02A3  2AA0               	goto	u2737
  1383  02A4  2AA5               	nop2
  1384                           opt asmopt_on
  1385                           
  1386                           	line	96
  1387                           	
  1388  02A5                     l1073:	
  1389  02A5  0008               	return
  1390                           	opt stack 0
  1391                           GLOBAL	__end_of_pulse
  1392  02A6                     	__end_of_pulse:
  1393 ;; =============== function _pulse ends ============
  1394                           
  1395                           	signat	_pulse,88
  1396                           	global	_uart_tx_char
  1397                           psect	text351,local,class=CODE,delta=2
  1398                           global __ptext351
  1399  02A6                     __ptext351:
  1400                           
  1401 ;; *************** function _uart_tx_char *****************
  1402 ;; Defined at:
  1403 ;;		line 74 in file "E:\MANFREE\(PIC)\gsm_receiver\gsm_receiver.c"
  1404 ;; Parameters:    Size  Location     Type
  1405 ;;  send_data       1    wreg     unsigned char 
  1406 ;; Auto vars:     Size  Location     Type
  1407 ;;  send_data       1    3[BANK0 ] unsigned char 
  1408 ;; Return value:  Size  Location     Type
  1409 ;;		None               void
  1410 ;; Registers used:
  1411 ;;		wreg
  1412 ;; Tracked objects:
  1413 ;;		On entry : 0/0
  1414 ;;		On exit  : 0/0
  1415 ;;		Unchanged: 0/0
  1416 ;; Data sizes:     COMMON   BANK0   BANK1   BANK3   BANK2
  1417 ;;      Params:         0       0       0       0       0
  1418 ;;      Locals:         0       1       0       0       0
  1419 ;;      Temps:          0       3       0       0       0
  1420 ;;      Totals:         0       4       0       0       0
  1421 ;;Total ram usage:        4 bytes
  1422 ;; Hardware stack levels used:    1
  1423 ;; Hardware stack levels required when called:    1
  1424 ;; This function calls:
  1425 ;;		Nothing
  1426 ;; This function is called by:
  1427 ;;		_sms_text_mode
  1428 ;; This function uses a non-reentrant model
  1429 ;;
  1430                           psect	text351
  1431                           	file	"E:\MANFREE\(PIC)\gsm_receiver\gsm_receiver.c"
  1432                           	line	74
  1433                           	global	__size_of_uart_tx_char
  1434  0018                     	__size_of_uart_tx_char	equ	__end_of_uart_tx_char-_uart_tx_char
  1435                           	
  1436  02A6                     _uart_tx_char:	
  1437                           	opt	stack 5
  1438                           ; Regs used in _uart_tx_char: [wreg]
  1439                           ;uart_tx_char@send_data stored from wreg
  1440                           	line	76
  1441  02A6  1283               	bcf	status, 5	;RP0=0, select bank0
  1442  02A7  1303               	bcf	status, 6	;RP1=0, select bank0
  1443  02A8  00C5               	movwf	(uart_tx_char@send_data)
  1444                           	
  1445  02A9                     l2585:	
  1446                           ;gsm_receiver.c: 76: TXREG = send_data;
  1447  02A9  0845               	movf	(uart_tx_char@send_data),w
  1448  02AA  0099               	movwf	(25)	;volatile
  1449                           	line	77
  1450                           ;gsm_receiver.c: 77: while (TXIF == 0);
  1451  02AB  2AAC               	goto	l1062
  1452                           	
  1453  02AC                     l1063:	
  1454                           	
  1455  02AC                     l1062:	
  1456  02AC  1E0C               	btfss	(100/8),(100)&7
  1457  02AD  2AAF               	goto	u2561
  1458  02AE  2AB0               	goto	u2560
  1459  02AF                     u2561:
  1460  02AF  2AAC               	goto	l1062
  1461  02B0                     u2560:
  1462                           	
  1463  02B0                     l1064:	
  1464                           	line	78
  1465                           ;gsm_receiver.c: 78: TXIF = 0;
  1466  02B0  120C               	bcf	(100/8),(100)&7
  1467                           	line	79
  1468                           	
  1469  02B1                     l2587:	
  1470                           ;gsm_receiver.c: 79: _delay((unsigned long)((1000)*(4000000/4000.0)));
  1471                           	opt asmopt_off
  1472  02B1  3006               movlw  6
  1473  02B2  00C4               movwf	((??_uart_tx_char+0)+0+2),f
  1474  02B3  300E               movlw	14
  1475  02B4  00C3               movwf	((??_uart_tx_char+0)+0+1),f
  1476  02B5  30B0               	movlw	176
  1477  02B6  00C2               movwf	((??_uart_tx_char+0)+0),f
  1478  02B7                     u2747:
  1479  02B7  0BC2               	decfsz	((??_uart_tx_char+0)+0),f
  1480  02B8  2AB7               	goto	u2747
  1481  02B9  0BC3               	decfsz	((??_uart_tx_char+0)+0+1),f
  1482  02BA  2AB7               	goto	u2747
  1483  02BB  0BC4               	decfsz	((??_uart_tx_char+0)+0+2),f
  1484  02BC  2AB7               	goto	u2747
  1485                           opt asmopt_on
  1486                           
  1487                           	line	80
  1488                           	
  1489  02BD                     l1065:	
  1490  02BD  0008               	return
  1491                           	opt stack 0
  1492                           GLOBAL	__end_of_uart_tx_char
  1493  02BE                     	__end_of_uart_tx_char:
  1494 ;; =============== function _uart_tx_char ends ============
  1495                           
  1496                           	signat	_uart_tx_char,4216
  1497                           	global	_uart_tx
  1498                           psect	text352,local,class=CODE,delta=2
  1499                           global __ptext352
  1500  0201                     __ptext352:
  1501                           
  1502 ;; *************** function _uart_tx *****************
  1503 ;; Defined at:
  1504 ;;		line 63 in file "E:\MANFREE\(PIC)\gsm_receiver\gsm_receiver.c"
  1505 ;; Parameters:    Size  Location     Type
  1506 ;;  send_data       1    wreg     PTR const unsigned char 
  1507 ;;		 -> STR_3(18), STR_2(10), STR_1(3), 
  1508 ;; Auto vars:     Size  Location     Type
  1509 ;;  send_data       1    3[BANK0 ] PTR const unsigned char 
  1510 ;;		 -> STR_3(18), STR_2(10), STR_1(3), 
  1511 ;; Return value:  Size  Location     Type
  1512 ;;		None               void
  1513 ;; Registers used:
  1514 ;;		wreg, fsr0l, fsr0h, status,2, status,0, pclath
  1515 ;; Tracked objects:
  1516 ;;		On entry : 0/0
  1517 ;;		On exit  : 0/0
  1518 ;;		Unchanged: 0/0
  1519 ;; Data sizes:     COMMON   BANK0   BANK1   BANK3   BANK2
  1520 ;;      Params:         0       0       0       0       0
  1521 ;;      Locals:         0       1       0       0       0
  1522 ;;      Temps:          0       3       0       0       0
  1523 ;;      Totals:         0       4       0       0       0
  1524 ;;Total ram usage:        4 bytes
  1525 ;; Hardware stack levels used:    2
  1526 ;; Hardware stack levels required when called:    1
  1527 ;; This function calls:
  1528 ;;		Nothing
  1529 ;; This function is called by:
  1530 ;;		_sms_text_mode
  1531 ;; This function uses a non-reentrant model
  1532 ;;
  1533                           psect	text352
  1534                           	file	"E:\MANFREE\(PIC)\gsm_receiver\gsm_receiver.c"
  1535                           	line	63
  1536                           	global	__size_of_uart_tx
  1537  0033                     	__size_of_uart_tx	equ	__end_of_uart_tx-_uart_tx
  1538                           	
  1539  0201                     _uart_tx:	
  1540                           	opt	stack 4
  1541                           ; Regs used in _uart_tx: [wreg-fsr0h+status,2+status,0+pclath]
  1542                           ;uart_tx@send_data stored from wreg
  1543  0201  1283               	bcf	status, 5	;RP0=0, select bank0
  1544  0202  1303               	bcf	status, 6	;RP1=0, select bank0
  1545  0203  00C5               	movwf	(uart_tx@send_data)
  1546                           	line	64
  1547                           	
  1548  0204                     l2575:	
  1549                           ;gsm_receiver.c: 64: while (*send_data)
  1550  0204  2A24               	goto	l2583
  1551                           	
  1552  0205                     l1054:	
  1553                           	line	66
  1554                           	
  1555  0205                     l2577:	
  1556                           ;gsm_receiver.c: 65: {
  1557                           ;gsm_receiver.c: 66: TXREG = *send_data;
  1558  0205  0845               	movf	(uart_tx@send_data),w
  1559  0206  0084               	movwf	fsr0
  1560  0207  120A  118A  201F   	fcall	stringdir
              120A  118A         
  1561  020C  0099               	movwf	(25)	;volatile
  1562                           	line	67
  1563                           	
  1564  020D                     l2579:	
  1565                           ;gsm_receiver.c: 67: send_data++;
  1566  020D  3001               	movlw	(01h)
  1567  020E  00C2               	movwf	(??_uart_tx+0)+0
  1568  020F  0842               	movf	(??_uart_tx+0)+0,w
  1569  0210  07C5               	addwf	(uart_tx@send_data),f
  1570                           	line	68
  1571                           ;gsm_receiver.c: 68: while (TXIF == 0);
  1572  0211  2A12               	goto	l1055
  1573                           	
  1574  0212                     l1056:	
  1575                           	
  1576  0212                     l1055:	
  1577  0212  1E0C               	btfss	(100/8),(100)&7
  1578  0213  2A15               	goto	u2541
  1579  0214  2A16               	goto	u2540
  1580  0215                     u2541:
  1581  0215  2A12               	goto	l1055
  1582  0216                     u2540:
  1583                           	
  1584  0216                     l1057:	
  1585                           	line	69
  1586                           ;gsm_receiver.c: 69: TXIF = 0;
  1587  0216  120C               	bcf	(100/8),(100)&7
  1588                           	line	70
  1589                           	
  1590  0217                     l2581:	
  1591                           ;gsm_receiver.c: 70: _delay((unsigned long)((1000)*(4000000/4000.0)));
  1592                           	opt asmopt_off
  1593  0217  3006               movlw  6
  1594  0218  00C4               movwf	((??_uart_tx+0)+0+2),f
  1595  0219  300E               movlw	14
  1596  021A  00C3               movwf	((??_uart_tx+0)+0+1),f
  1597  021B  30B0               	movlw	176
  1598  021C  00C2               movwf	((??_uart_tx+0)+0),f
  1599  021D                     u2757:
  1600  021D  0BC2               	decfsz	((??_uart_tx+0)+0),f
  1601  021E  2A1D               	goto	u2757
  1602  021F  0BC3               	decfsz	((??_uart_tx+0)+0+1),f
  1603  0220  2A1D               	goto	u2757
  1604  0221  0BC4               	decfsz	((??_uart_tx+0)+0+2),f
  1605  0222  2A1D               	goto	u2757
  1606                           opt asmopt_on
  1607                           
  1608  0223  2A24               	goto	l2583
  1609                           	line	71
  1610                           	
  1611  0224                     l1053:	
  1612                           	line	64
  1613                           	
  1614  0224                     l2583:	
  1615  0224  1283               	bcf	status, 5	;RP0=0, select bank0
  1616  0225  1303               	bcf	status, 6	;RP1=0, select bank0
  1617  0226  0845               	movf	(uart_tx@send_data),w
  1618  0227  0084               	movwf	fsr0
  1619  0228  120A  118A  201F   	fcall	stringdir
              120A  118A         
  1620  022D  3800               	iorlw	0
  1621  022E  1D03               	skipz
  1622  022F  2A31               	goto	u2551
  1623  0230  2A32               	goto	u2550
  1624  0231                     u2551:
  1625  0231  2A05               	goto	l2577
  1626  0232                     u2550:
  1627  0232  2A33               	goto	l1059
  1628                           	
  1629  0233                     l1058:	
  1630                           	line	72
  1631                           	
  1632  0233                     l1059:	
  1633  0233  0008               	return
  1634                           	opt stack 0
  1635                           GLOBAL	__end_of_uart_tx
  1636  0234                     	__end_of_uart_tx:
  1637 ;; =============== function _uart_tx ends ============
  1638                           
  1639                           	signat	_uart_tx,4216
  1640                           	global	_string_clear
  1641                           psect	text353,local,class=CODE,delta=2
  1642                           global __ptext353
  1643  0234                     __ptext353:
  1644                           
  1645 ;; *************** function _string_clear *****************
  1646 ;; Defined at:
  1647 ;;		line 83 in file "E:\MANFREE\(PIC)\gsm_receiver\gsm_receiver.c"
  1648 ;; Parameters:    Size  Location     Type
  1649 ;;		None
  1650 ;; Auto vars:     Size  Location     Type
  1651 ;;  str_clr         2    0[BANK0 ] int 
  1652 ;; Return value:  Size  Location     Type
  1653 ;;		None               void
  1654 ;; Registers used:
  1655 ;;		wreg, fsr0l, fsr0h, status,2, status,0, btemp+1
  1656 ;; Tracked objects:
  1657 ;;		On entry : 0/0
  1658 ;;		On exit  : 0/0
  1659 ;;		Unchanged: 0/0
  1660 ;; Data sizes:     COMMON   BANK0   BANK1   BANK3   BANK2
  1661 ;;      Params:         0       0       0       0       0
  1662 ;;      Locals:         0       2       0       0       0
  1663 ;;      Temps:          0       0       0       0       0
  1664 ;;      Totals:         0       2       0       0       0
  1665 ;;Total ram usage:        2 bytes
  1666 ;; Hardware stack levels used:    1
  1667 ;; Hardware stack levels required when called:    1
  1668 ;; This function calls:
  1669 ;;		Nothing
  1670 ;; This function is called by:
  1671 ;;		_main
  1672 ;; This function uses a non-reentrant model
  1673 ;;
  1674                           psect	text353
  1675                           	file	"E:\MANFREE\(PIC)\gsm_receiver\gsm_receiver.c"
  1676                           	line	83
  1677                           	global	__size_of_string_clear
  1678  002F                     	__size_of_string_clear	equ	__end_of_string_clear-_string_clear
  1679                           	
  1680  0234                     _string_clear:	
  1681                           	opt	stack 6
  1682                           ; Regs used in _string_clear: [wreg-fsr0h+status,2+status,0+btemp+1]
  1683                           	line	84
  1684                           	
  1685  0234                     l2557:	
  1686                           ;gsm_receiver.c: 84: for (int str_clr = 0; str_clr < 30; str_clr++)
  1687  0234  1283               	bcf	status, 5	;RP0=0, select bank0
  1688  0235  1303               	bcf	status, 6	;RP1=0, select bank0
  1689  0236  01C2               	clrf	(string_clear@str_clr)
  1690  0237  01C3               	clrf	(string_clear@str_clr+1)
  1691                           	
  1692  0238                     l2559:	
  1693  0238  0843               	movf	(string_clear@str_clr+1),w
  1694  0239  3A80               	xorlw	80h
  1695  023A  00FF               	movwf	btemp+1
  1696  023B  3080               	movlw	(high(01Eh))^80h
  1697  023C  027F               	subwf	btemp+1,w
  1698  023D  1D03               	skipz
  1699  023E  2A41               	goto	u2525
  1700  023F  301E               	movlw	low(01Eh)
  1701  0240  0242               	subwf	(string_clear@str_clr),w
  1702  0241                     u2525:
  1703                           
  1704  0241  1C03               	skipc
  1705  0242  2A44               	goto	u2521
  1706  0243  2A45               	goto	u2520
  1707  0244                     u2521:
  1708  0244  2A47               	goto	l2563
  1709  0245                     u2520:
  1710  0245  2A62               	goto	l1070
  1711                           	
  1712  0246                     l2561:	
  1713  0246  2A62               	goto	l1070
  1714                           	line	85
  1715                           	
  1716  0247                     l1068:	
  1717                           	line	86
  1718                           	
  1719  0247                     l2563:	
  1720                           ;gsm_receiver.c: 85: {
  1721                           ;gsm_receiver.c: 86: rx_value[str_clr] = 0;
  1722  0247  1283               	bcf	status, 5	;RP0=0, select bank0
  1723  0248  1303               	bcf	status, 6	;RP1=0, select bank0
  1724  0249  0842               	movf	(string_clear@str_clr),w
  1725  024A  3E24               	addlw	_rx_value&0ffh
  1726  024B  0084               	movwf	fsr0
  1727  024C  1383               	bcf	status, 7	;select IRP bank0
  1728  024D  0180               	clrf	indf
  1729                           	line	84
  1730                           	
  1731  024E                     l2565:	
  1732  024E  3001               	movlw	low(01h)
  1733  024F  07C2               	addwf	(string_clear@str_clr),f
  1734  0250  1803               	skipnc
  1735  0251  0AC3               	incf	(string_clear@str_clr+1),f
  1736  0252  3000               	movlw	high(01h)
  1737  0253  07C3               	addwf	(string_clear@str_clr+1),f
  1738                           	
  1739  0254                     l2567:	
  1740  0254  0843               	movf	(string_clear@str_clr+1),w
  1741  0255  3A80               	xorlw	80h
  1742  0256  00FF               	movwf	btemp+1
  1743  0257  3080               	movlw	(high(01Eh))^80h
  1744  0258  027F               	subwf	btemp+1,w
  1745  0259  1D03               	skipz
  1746  025A  2A5D               	goto	u2535
  1747  025B  301E               	movlw	low(01Eh)
  1748  025C  0242               	subwf	(string_clear@str_clr),w
  1749  025D                     u2535:
  1750                           
  1751  025D  1C03               	skipc
  1752  025E  2A60               	goto	u2531
  1753  025F  2A61               	goto	u2530
  1754  0260                     u2531:
  1755  0260  2A47               	goto	l2563
  1756  0261                     u2530:
  1757  0261  2A62               	goto	l1070
  1758                           	
  1759  0262                     l1069:	
  1760                           	line	88
  1761                           	
  1762  0262                     l1070:	
  1763  0262  0008               	return
  1764                           	opt stack 0
  1765                           GLOBAL	__end_of_string_clear
  1766  0263                     	__end_of_string_clear:
  1767 ;; =============== function _string_clear ends ============
  1768                           
  1769                           	signat	_string_clear,88
  1770                           	global	_uart_rx
  1771                           psect	text354,local,class=CODE,delta=2
  1772                           global __ptext354
  1773  01B6                     __ptext354:
  1774                           
  1775 ;; *************** function _uart_rx *****************
  1776 ;; Defined at:
  1777 ;;		line 36 in file "E:\MANFREE\(PIC)\gsm_receiver\gsm_receiver.c"
  1778 ;; Parameters:    Size  Location     Type
  1779 ;;		None
  1780 ;; Auto vars:     Size  Location     Type
  1781 ;;		None
  1782 ;; Return value:  Size  Location     Type
  1783 ;;		None               void
  1784 ;; Registers used:
  1785 ;;		wreg, fsr0l, fsr0h, status,2, status,0
  1786 ;; Tracked objects:
  1787 ;;		On entry : 0/0
  1788 ;;		On exit  : 0/0
  1789 ;;		Unchanged: 0/0
  1790 ;; Data sizes:     COMMON   BANK0   BANK1   BANK3   BANK2
  1791 ;;      Params:         0       0       0       0       0
  1792 ;;      Locals:         0       0       0       0       0
  1793 ;;      Temps:          5       0       0       0       0
  1794 ;;      Totals:         5       0       0       0       0
  1795 ;;Total ram usage:        5 bytes
  1796 ;; Hardware stack levels used:    1
  1797 ;; This function calls:
  1798 ;;		Nothing
  1799 ;; This function is called by:
  1800 ;;		Interrupt level 1
  1801 ;; This function uses a non-reentrant model
  1802 ;;
  1803                           psect	text354
  1804                           	file	"E:\MANFREE\(PIC)\gsm_receiver\gsm_receiver.c"
  1805                           	line	36
  1806                           	global	__size_of_uart_rx
  1807  004B                     	__size_of_uart_rx	equ	__end_of_uart_rx-_uart_rx
  1808                           	
  1809  01B6                     _uart_rx:	
  1810                           	opt	stack 4
  1811                           ; Regs used in _uart_rx: [wreg-fsr0h+status,2+status,0]
  1812                           psect	intentry,class=CODE,delta=2
  1813                           global __pintentry
  1814  0004                     __pintentry:
  1815                           global interrupt_function
  1816  0004                     interrupt_function:
  1817                           	global saved_w
  1818  007E                     	saved_w	set	btemp+0
  1819  0004  00FE               	movwf	saved_w
  1820  0005  0E03               	swapf	status,w
  1821  0006  00F6               	movwf	(??_uart_rx+1)
  1822  0007  0804               	movf	fsr0,w
  1823  0008  00F7               	movwf	(??_uart_rx+2)
  1824  0009  080A               	movf	pclath,w
  1825  000A  00F8               	movwf	(??_uart_rx+3)
  1826  000B  1283               	bcf	status, 5	;RP0=0, select bank0
  1827  000C  1303               	bcf	status, 6	;RP1=0, select bank0
  1828  000D  087F               	movf	btemp+1,w
  1829  000E  00F9               	movwf	(??_uart_rx+4)
  1830  000F  120A  118A  29B6   	ljmp	_uart_rx
  1831                           psect	text354
  1832                           	line	37
  1833                           	
  1834  01B6                     i1l2395:	
  1835                           ;gsm_receiver.c: 37: if (RCIF == 1)
  1836  01B6  1E8C               	btfss	(101/8),(101)&7
  1837  01B7  29B9               	goto	u233_21
  1838  01B8  29BA               	goto	u233_20
  1839  01B9                     u233_21:
  1840  01B9  29F4               	goto	i1l2413
  1841  01BA                     u233_20:
  1842                           	line	39
  1843                           	
  1844  01BA                     i1l2397:	
  1845                           ;gsm_receiver.c: 38: {
  1846                           ;gsm_receiver.c: 39: temp = RCREG;
  1847  01BA  081A               	movf	(26),w	;volatile
  1848  01BB  00F5               	movwf	(??_uart_rx+0)+0
  1849  01BC  0875               	movf	(??_uart_rx+0)+0,w
  1850  01BD  00F4               	movwf	(_temp)
  1851                           	line	41
  1852                           ;gsm_receiver.c: 40: {
  1853                           ;gsm_receiver.c: 41: if (store_value == 2)
  1854  01BE  3002               	movlw	02h
  1855  01BF  0622               	xorwf	(_store_value),w
  1856  01C0  0423               	iorwf	(_store_value+1),w
  1857  01C1  1D03               	skipz
  1858  01C2  29C4               	goto	u234_21
  1859  01C3  29C5               	goto	u234_20
  1860  01C4                     u234_21:
  1861  01C4  29D8               	goto	i1l2405
  1862  01C5                     u234_20:
  1863                           	line	43
  1864                           	
  1865  01C5                     i1l2399:	
  1866                           ;gsm_receiver.c: 42: {
  1867                           ;gsm_receiver.c: 43: rx_value[data_count] = temp;
  1868  01C5  0874               	movf	(_temp),w
  1869  01C6  00F5               	movwf	(??_uart_rx+0)+0
  1870  01C7  0870               	movf	(_data_count),w
  1871  01C8  3E24               	addlw	_rx_value&0ffh
  1872  01C9  0084               	movwf	fsr0
  1873  01CA  0875               	movf	(??_uart_rx+0)+0,w
  1874  01CB  1383               	bcf	status, 7	;select IRP bank0
  1875  01CC  0080               	movwf	indf
  1876                           	line	44
  1877                           	
  1878  01CD                     i1l2401:	
  1879                           ;gsm_receiver.c: 44: data_received = 1;
  1880  01CD  3001               	movlw	low(01h)
  1881  01CE  00F2               	movwf	(_data_received)
  1882  01CF  3000               	movlw	high(01h)
  1883  01D0  00F3               	movwf	((_data_received))+1
  1884                           	line	45
  1885                           	
  1886  01D1                     i1l2403:	
  1887                           ;gsm_receiver.c: 45: data_count++;
  1888  01D1  3001               	movlw	low(01h)
  1889  01D2  07F0               	addwf	(_data_count),f
  1890  01D3  1803               	skipnc
  1891  01D4  0AF1               	incf	(_data_count+1),f
  1892  01D5  3000               	movlw	high(01h)
  1893  01D6  07F1               	addwf	(_data_count+1),f
  1894  01D7  29D8               	goto	i1l2405
  1895                           	line	46
  1896                           	
  1897  01D8                     i1l1047:	
  1898                           	line	48
  1899                           	
  1900  01D8                     i1l2405:	
  1901                           ;gsm_receiver.c: 46: }
  1902                           ;gsm_receiver.c: 48: if (temp == 0x0A)
  1903  01D8  0874               	movf	(_temp),w
  1904  01D9  3A0A               	xorlw	0Ah
  1905  01DA  1D03               	skipz
  1906  01DB  29DD               	goto	u235_21
  1907  01DC  29DE               	goto	u235_20
  1908  01DD                     u235_21:
  1909  01DD  29E4               	goto	i1l1048
  1910  01DE                     u235_20:
  1911                           	line	50
  1912                           	
  1913  01DE                     i1l2407:	
  1914                           ;gsm_receiver.c: 49: {
  1915                           ;gsm_receiver.c: 50: store_value++;
  1916  01DE  3001               	movlw	low(01h)
  1917  01DF  07A2               	addwf	(_store_value),f
  1918  01E0  1803               	skipnc
  1919  01E1  0AA3               	incf	(_store_value+1),f
  1920  01E2  3000               	movlw	high(01h)
  1921  01E3  07A3               	addwf	(_store_value+1),f
  1922                           	line	51
  1923                           	
  1924  01E4                     i1l1048:	
  1925                           	line	52
  1926                           ;gsm_receiver.c: 51: }
  1927                           ;gsm_receiver.c: 52: if (temp == 0x0D)
  1928  01E4  0874               	movf	(_temp),w
  1929  01E5  3A0D               	xorlw	0Dh
  1930  01E6  1D03               	skipz
  1931  01E7  29E9               	goto	u236_21
  1932  01E8  29EA               	goto	u236_20
  1933  01E9                     u236_21:
  1934  01E9  29F4               	goto	i1l2413
  1935  01EA                     u236_20:
  1936                           	line	54
  1937                           	
  1938  01EA                     i1l2409:	
  1939                           ;gsm_receiver.c: 53: {
  1940                           ;gsm_receiver.c: 54: rx_value[data_count - 1] = '\0';
  1941  01EA  0870               	movf	(_data_count),w
  1942  01EB  3EFF               	addlw	0FFh
  1943  01EC  3E24               	addlw	_rx_value&0ffh
  1944  01ED  0084               	movwf	fsr0
  1945  01EE  1383               	bcf	status, 7	;select IRP bank0
  1946  01EF  0180               	clrf	indf
  1947                           	line	55
  1948                           	
  1949  01F0                     i1l2411:	
  1950                           ;gsm_receiver.c: 55: store_value = 0;
  1951  01F0  01A2               	clrf	(_store_value)
  1952  01F1  01A3               	clrf	(_store_value+1)
  1953  01F2  29F4               	goto	i1l2413
  1954                           	line	56
  1955                           	
  1956  01F3                     i1l1049:	
  1957  01F3  29F4               	goto	i1l2413
  1958                           	line	58
  1959                           	
  1960  01F4                     i1l1046:	
  1961                           	line	59
  1962                           	
  1963  01F4                     i1l2413:	
  1964                           ;gsm_receiver.c: 56: }
  1965                           ;gsm_receiver.c: 57: }
  1966                           ;gsm_receiver.c: 58: }
  1967                           ;gsm_receiver.c: 59: RCIF = 0;
  1968  01F4  128C               	bcf	(101/8),(101)&7
  1969                           	line	60
  1970                           	
  1971  01F5                     i1l2415:	
  1972                           ;gsm_receiver.c: 60: temp = 0;
  1973  01F5  01F4               	clrf	(_temp)
  1974                           	line	61
  1975                           	
  1976  01F6                     i1l1050:	
  1977  01F6  0879               	movf	(??_uart_rx+4),w
  1978  01F7  00FF               	movwf	btemp+1
  1979  01F8  0878               	movf	(??_uart_rx+3),w
  1980  01F9  008A               	movwf	pclath
  1981  01FA  0877               	movf	(??_uart_rx+2),w
  1982  01FB  0084               	movwf	fsr0
  1983  01FC  0E76               	swapf	(??_uart_rx+1)^0FFFFFF80h,w
  1984  01FD  0083               	movwf	status
  1985  01FE  0EFE               	swapf	saved_w,f
  1986  01FF  0E7E               	swapf	saved_w,w
  1987  0200  0009               	retfie
  1988                           	opt stack 0
  1989                           GLOBAL	__end_of_uart_rx
  1990  0201                     	__end_of_uart_rx:
  1991 ;; =============== function _uart_rx ends ============
  1992                           
  1993                           	signat	_uart_rx,88
  1994                           psect	text355,local,class=CODE,delta=2
  1995                           global __ptext355
  1996  0000                     __ptext355:
  1997                           	global	btemp
  1998  007E                     	btemp set 07Eh
  1999                           
  2000                           	DABS	1,126,2	;btemp
  2001                           	global	wtemp0
  2002  007E                     	wtemp0 set btemp


HI-TECH Software PICC Macro Assembler V9.81 build 7503 
Symbol Table                                                                                   Fri Mar 03 16:05:57 2023

                     pc 0002            ?_display_cmd 0044            ?_display_str 0044                      fsr 0004  
                   _GIE 005F                     _RA0 0028                     _RE0 0048                     _RE1 0049  
                   fsr0 0004                     indf 0000           _sms_text_mode 015E                    l1043 01B5  
                  l1053 0224                    l1070 0262                    l1054 0205                    l1062 02AC  
                  l1055 0212                    l1063 02AC                    l1056 0212                    l1064 02B0  
                  l1057 0216                    l1065 02BD                    l1073 02A5                    l1058 0233  
                  l1082 027B                    l1090 0115                    l1059 0233                    l1083 0264  
                  l1091 0129                    l1068 0247                    l1076 02DA                    l1084 028C  
                  l1092 015A                    l1069 0262                    l1085 028C                    l1093 015B  
                  l1094 015B                    l1088 00DD                    l1089 014B                    l2601 0170  
                  l2611 019E                    l2603 017B                    l2613 01A4                    l2605 0181  
                  l2621 02D5                    l2615 01AA                    l2607 0187                    l2631 027B  
                  l2623 0263                    l2561 0246                    l2609 0198                    l2617 02D0  
                  l2625 0265                    l2641 007B                    l2633 005A                    l2563 0247  
                  l2619 02D3                    l2627 026F                    l2651 0099                    l2643 007F  
                  l2635 005E                    l2565 024E                    l2557 0234                    l2581 0217  
                  l2629 0275                    l2661 00D1                    l2653 00A7                    l2645 0082  
                  l2637 0073                    l2567 0254                    l2559 0238                    l2583 0224  
                  l2575 0204                    l2591 0290                    l2671 010D                    l2663 00DD  
                  l2655 00AC                    l2647 0083                    l2639 0077                    l2577 0205  
                  l2585 02A9                    l2593 0299                    l2681 0127                    l2673 0113  
                  l2665 00E4                    l2657 00BB                    l2649 008E                    l2579 020D  
                  l2587 02B1                    l2595 015E                    l2691 0143                    l2683 0129  
                  l2675 0115                    l2667 00FA                    l2659 00C6                    l2589 028D  
                  l2597 0164                    l2693 0148                    l2685 0132                    l2677 011B  
                  l2669 0105                    l2599 016A                    l2687 013D                    l2679 0121  
                  l2695 014B                    l2689 013F                    STR_1 0057                    STR_2 0043  
                  STR_3 0025                    STR_4 004D                    STR_5 0037                    u2520 0245  
                  u2521 0244                    u2530 0261                    u2610 00E4                    u2531 0260  
                  u2611 00E3                    u2540 0216                    u2620 010D                    u2604 00BB  
                  u2525 0241                    u2541 0215                    u2621 010C                    u2550 0232  
                  u2630 0113                    u2535 025D                    u2551 0231                    u2631 0112  
                  u2560 02B0                    u2640 011B                    u2561 02AF                    u2641 011A  
                  u2570 028B                    u2650 0121                    u2707 0193                    u2571 028A  
                  u2651 0120                    u2660 0127                    u2580 00B4                    u2717 01B0  
                  u2661 0126                    u2581 00B2                    u2590 00BA                    u2727 0294  
                  u2591 00B8                    u2737 02A0                    u2594 00B5                    u2747 02B7  
                  _PEIE 005E                    u2757 021D                    u2677 00A1                    u2687 0153  
                  u2697 0176                    _RCIE 0465                    _RCIF 0065                    _TXIF 0064  
                  _main 005A                    _temp 0074                    btemp 007E                    start 0012  
           _store_value 0022                   ?_main 0075                   _ANSEL 0188                   _RCREG 001A  
                 _RCSTA 0018                   _SPBRG 0099                   _PORTA 0005                   _PORTC 0007  
                 _PORTD 0008                   _PORTE 0009                   _TRISA 0085                   _TRISD 0088  
                 _TRISE 0089                   _TXREG 0019                   _TXSTA 0098   __size_of_string_clear 002F  
        ?_sms_text_mode 0075                   _count 0020                   _pulse 028D                   pclath 000A  
       __end_of_uart_rx 0201         __end_of_uart_tx 0234                   status 0003                   wtemp0 007E  
          __end_of_main 015E            _string_clear 0234                  ??_main 0048                  ?_pulse 0075  
                _ANSELH 0189                  i1l1050 01F6                  i1l1046 01F4                  i1l1047 01D8  
                i1l1048 01E4                  i1l1049 01F3                  i1l2401 01CD                  i1l2411 01F0  
                i1l2403 01D1                  i1l2405 01D8                  i1l2413 01F4                  i1l2415 01F5  
                i1l2407 01DE                  i1l2409 01EA                  i1l2395 01B6                  i1l2397 01BA  
                i1l2399 01C5                  u233_20 01BA                  u233_21 01B9                  u234_20 01C5  
                u234_21 01C4                  u235_20 01DE                  u235_21 01DD                  u236_20 01EA  
                u236_21 01E9                  _TRISC6 043E                  _TRISC7 043F    __size_of_display_cmd 000B  
                clrloop 02DC    __size_of_display_str 002A         ??_sms_text_mode 0046                  saved_w 007E  
   string_clear@str_clr 0042               ??_uart_rx 0075               ??_uart_tx 0042          __pcstackCOMMON 0075  
         __end_of_pulse 02A6                 ??_pulse 0042              __pbssBANK0 0020              _data_count 0070  
            __pmaintext 005A              __pintentry 0004                 _uart_rx 01B6                 _uart_tx 0201  
  end_of_initialization 02CC          display_cmd@cmd 0044           ?_uart_tx_char 0075          ??_uart_tx_char 0042  
         ??_display_cmd 0046           ??_display_str 0046           _data_received 0072     start_initialization 02BE  
 __end_of_sms_text_mode 01B6   uart_tx_char@send_data 0045     __end_of_display_cmd 02DB     __end_of_display_str 028D  
           __pbssCOMMON 0070           __pcstackBANK0 0042               __ptext350 028D               __ptext351 02A6  
             __ptext352 0201               __ptext353 0234               __ptext354 01B6               __ptext346 0000  
             __ptext355 0000               __ptext347 0263               __ptext348 02D0               __ptext349 015E  
         ?_string_clear 0075               __pstrings 0015    __end_of_uart_tx_char 02BE                ?_uart_rx 0075  
              ?_uart_tx 0075          __size_of_pulse 0019       interrupt_function 0004        uart_tx@send_data 0045  
        ??_string_clear 0042             _display_cmd 02D0             _display_str 0263             __stringbase 0024  
      __size_of_uart_rx 004B        __size_of_uart_tx 0033           __size_of_main 0104                clear_ram 02DB  
              _rx_value 0024   __size_of_uart_tx_char 0018    __end_of_string_clear 0263                intlevel1 0000  
             stringcode 001F            _uart_tx_char 02A6  __size_of_sms_text_mode 0058         display_str@data 0044  
              stringdir 001F                stringtab 0015  
